
M_kernel:     file format elf32-i386

Contents of section .text:
 100000 02b0ad1b 03000000 fb4f52e4 fabc0380  .........OR.....
 100010 0000bd00 00000083 e4f0891d 00b01000  ................
 100020 e8d31000 00f4ebfd 5589e583 ec280fb6  ........U....(..
 100030 0505b010 000fb6d0 89d0c1e0 0201d0c1  ................
 100040 e00489c2 0fb60504 b010000f b6c001d0  ................
 100050 668945f6 c7442404 0e000000 c70424d4  f.E..D$.......$.
 100060 030000e8 44040000 0fb745f6 66c1e808  ....D.....E.f...
 100070 0fb6c089 442404c7 0424d503 0000e829  ....D$...$.....)
 100080 040000c7 4424040f 000000c7 0424d403  ....D$.......$..
 100090 0000e815 0400000f b745f60f b6c08944  .........E.....D
 1000a0 2404c704 24d50300 00e8fe03 0000c9c3  $...$...........
 1000b0 5589e583 ec10c645 fb0f0fb6 45fbc1e0  U......E....E...
 1000c0 0883c820 668945f8 0fb60505 b010003c  ... f.E........<
 1000d0 187667c7 45fc0000 0000eb25 a1002010  .vg.E......%.. .
 1000e0 008b55fc 01d201c2 a1002010 008b4dfc  ..U....... ...M.
 1000f0 83c15001 c901c80f b7006689 028345fc  ..P.......f...E.
 100100 01817dfc 7f070000 7ed2c745 fc800700  ..}.....~..E....
 100110 00eb17a1 00201000 8b55fc01 d201c20f  ..... ...U......
 100120 b745f866 89028345 fc01817d fccf0700  .E.f...E...}....
 100130 007ee0c6 0505b010 0018c9c3 5589e583  .~..........U...
 100140 ec18c645 f30f0fb6 45f3c1e0 0883c820  ...E....E...... 
 100150 668945f0 c745f400 000000eb 17a10020  f.E..E......... 
 100160 10008b55 f401d201 c20fb745 f0668902  ...U.......E.f..
 100170 8345f401 817df4cf 0700007e e0c60504  .E...}.....~....
 100180 b0100000 c60505b0 100000e8 98feffff  ................
 100190 c9c35589 e583ec28 8b450888 45e48b45  ..U....(.E..E..E
 1001a0 0c8845f7 8b451088 45f60fb6 45f7c1e0  ..E..E..E...E...
 1001b0 040fb655 f683e20f 09d08845 f50fb645  ...U.......E...E
 1001c0 f5c1e008 668945f2 807de408 751f0fb6  ....f.E..}..u...
 1001d0 0504b010 0084c074 140fb605 04b01000  .......t........
 1001e0 83e801a2 04b01000 e9970000 00807de4  ..............}.
 1001f0 0975140f b60504b0 100083c0 0883e0f8  .u..............
 100200 a204b010 00eb7d80 7de40d75 09c60504  ......}.}..u....
 100210 b0100000 eb6e807d e40a7518 c60504b0  .....n.}..u.....
 100220 1000000f b60505b0 100083c0 01a205b0  ................
 100230 1000eb50 807de41f 7e4a8b0d 00201000  ...P.}..~J... ..
 100240 0fb60505 b010000f b6d089d0 c1e00201  ................
 100250 d0c1e004 89c20fb6 0504b010 000fb6c0  ................
 100260 01d001c0 8d140166 0fbe4de4 0fb745f2  .......f..M...E.
 100270 09c86689 020fb605 04b01000 83c001a2  ..f.............
 100280 04b01000 0fb60504 b010003c 4f7616c6  ...........<Ov..
 100290 0504b010 00000fb6 0505b010 0083c001  ................
 1002a0 a205b010 00e806fe ffffe879 fdffffc9  ...........y....
 1002b0 c35589e5 83ec18eb 258b4508 0fb6000f  .U......%.E.....
 1002c0 bec08345 0801c744 24080f00 0000c744  ...E...D$......D
 1002d0 24040000 00008904 24e8b4fe ffff8b45  $.......$......E
 1002e0 080fb600 84c075d1 c9c35589 e583ec18  ......u...U.....
 1002f0 eb238b45 080fb600 0fbec083 4508018b  .#.E........E...
 100300 55108954 24088b55 0c895424 04890424  U..T$..U..T$...$
 100310 e87dfeff ff8b4508 0fb60084 c075d3c9  .}....E......u..
 100320 c35589e5 5383ec24 c645f701 8b451089  .U..S..$.E...E..
 100330 4424088b 450c8944 2404c704 24042010  D$..E..D$...$. .
 100340 00e8a4ff ffffc745 f01c0000 00eb718b  .......E......q.
 100350 45f08b55 0889d389 c1d3eb89 d883e00f  E..U............
 100360 8945ec83 7dec0075 06807df7 00754cc6  .E..}..u..}..uL.
 100370 45f70083 7dec097e 218b45ec 83c0570f  E...}..~!.E...W.
 100380 bec08b55 10895424 088b550c 89542404  ...U..T$..U..T$.
 100390 890424e8 fafdffff eb228b45 ec83c030  ..$......".E...0
 1003a0 0fbec08b 55108954 24088b55 0c895424  ....U..T$..U..T$
 1003b0 04890424 e8d9fdff ffeb0190 836df004  ...$.........m..
 1003c0 837df000 798983c4 245b5dc3 5589e583  .}..y...$[].U...
 1003d0 ec78837d 0800751f 8b451089 4424088b  .x.}..u..E..D$..
 1003e0 450c8944 2404c704 24300000 00e8a0fd  E..D$...$0......
 1003f0 ffffe9b3 0000008b 45088945 f4c745f0  ........E..E..E.
 100400 00000000 eb478b4d f4bacdcc cccc89c8  .....G.M........
 100410 f7e2c1ea 0389d0c1 e00201d0 01c089ca  ................
 100420 29c289d0 83c03089 c28d45cc 0345f088  ).....0...E..E..
 100430 108b45f4 8945a4ba cdcccccc 8b45a4f7  ..E..E.......E..
 100440 e289d0c1 e8038945 f48345f0 01837df4  .......E..E...}.
 100450 0075b38d 45cc0345 f0c60000 8d45ac03  .u..E..E.....E..
 100460 45f0c600 00836df0 01c745ec 00000000  E.....m...E.....
 100470 eb198d45 cc0345ec 0fb6108d 45ac0345  ...E..E.....E..E
 100480 f0881083 6df00183 45ec0183 7df00079  ....m...E...}..y
 100490 e18b4510 89442408 8b450c89 4424048d  ..E..D$..E..D$..
 1004a0 45ac8904 24e840fe ffffc9c3 5589e583  E...$.@.....U...
 1004b0 ec088b55 088b450c 668955fc 8845f80f  ...U..E.f.U..E..
 1004c0 b755fc0f b645f8ee c9c35589 e55383ec  .U...E....U..S..
 1004d0 148b4508 668945e8 0fb755e8 668955ea  ..E.f.E...U.f.U.
 1004e0 0fb755ea ec89c388 5dfb0fb6 45fb83c4  ..U.....]...E...
 1004f0 145b5dc3 5589e553 83ec148b 45086689  .[].U..S....E.f.
 100500 45e80fb7 55e86689 55ea0fb7 55ea66ed  E...U.f.U...U.f.
 100510 89c36689 5dfa0fb7 45fa83c4 145b5dc3  ..f.]...E....[].
 100520 5589e5eb 178b450c 0fb6108b 45088810  U.....E.....E...
 100530 83450801 83450c01 836d1001 837d1000  .E...E...m...}..
 100540 75e35dc3 5589e583 ec148b45 0c8845ec  u.].U......E..E.
 100550 8b450889 45f8c745 fc000000 00eb108b  .E..E..E........
 100560 45fc0345 f80fb655 ec881083 45fc018b  E..E...U....E...
 100570 45fc3b45 1072e8c9 c35589e5 83ec0c8b  E.;E.r...U......
 100580 450c8944 2408c744 24040000 00008b45  E..D$..D$......E
 100590 08890424 e8abffff ffc9c355 89e583ec  ...$.......U....
 1005a0 108b4508 8945fc8b 450c8945 f8eb0883  ..E..E..E..E....
 1005b0 45fc0183 45f8018b 45fc0fb6 0084c074  E...E...E......t
 1005c0 0a8b45f8 0fb60084 c075e48b 45fc0fb6  ..E......u..E...
 1005d0 000fbed0 8b45f80f b6000fbe c089d129  .....E.........)
 1005e0 c189c889 45f48b45 f4c9c355 89e583ec  ....E..E...U....
 1005f0 108b4508 8945fc8b 450c8945 f8eb0483  ..E..E..E..E....
 100600 45fc018b 45fc0fb6 0084c075 f2eb138b  E...E......u....
 100610 45f80fb6 108b45fc 88108345 fc018345  E.....E....E...E
 100620 f8018b45 f80fb600 84c075e3 8b45fcc6  ...E......u..E..
 100630 00008b45 08c9c355 89e583ec 10c745fc  ...E...U......E.
 100640 00000000 8b450889 45f8eb04 8345fc01  .....E..E....E..
 100650 8b45f80f b60084c0 0f95c083 45f80184  .E..........E...
 100660 c075e98b 45fcc9c3 5589e583 ec388b45  .u..E...U....8.E
 100670 0c8b4024 8945f08b 450c8b50 2889d0c1  ..@$.E..E..P(...
 100680 e00201d0 c1e00303 45f08b40 0c8945ec  ........E..@..E.
 100690 c745f400 000000e9 a2000000 8b55f489  .E...........U..
 1006a0 d0c1e002 01d0c1e0 030345f0 8b000345  ..........E....E
 1006b0 ec8945e8 c7442404 07201000 8b45e889  ..E..D$.. ...E..
 1006c0 0424e8d4 feffff85 c0752c8b 55f489d0  .$.......u,.U...
 1006d0 c1e00201 d0c1e003 0345f08b 400c8945  .........E..@..E
 1006e0 e08b55f4 89d0c1e0 0201d0c1 e0030345  ..U............E
 1006f0 f08b4014 8945e4c7 4424040f 2010008b  ..@..E..D$.. ...
 100700 45e88904 24e891fe ffff85c0 752c8b55  E...$.......u,.U
 100710 f489d0c1 e00201d0 c1e00303 45f08b40  ............E..@
 100720 0c8945d8 8b55f489 d0c1e002 01d0c1e0  ..E..U..........
 100730 030345f0 8b401489 45dc8345 f4018b55  ..E..@..E..E...U
 100740 f48b450c 8b401c39 c20f824d ffffff8b  ..E..@.9...M....
 100750 45088b55 d889108b 55dc8950 048b55e0  E..U....U..P..U.
 100760 8950088b 55e48950 0c8b4508 c9c20400  .P..U..P..E.....
 100770 5589e583 ec10c745 fc000000 00eb788b  U......E......x.
 100780 450c8b00 8b55fcc1 e20401d0 0fb6400c  E....U........@.
 100790 0fb6c083 e00f83f8 0275578b 450c8b00  .........uW.E...
 1007a0 8b55fcc1 e20401d0 8b40043b 45087743  .U.......@.;E.wC
 1007b0 8b450c8b 008b55fc c1e20401 d08b5004  .E....U.......P.
 1007c0 8b450c8b 008b4dfc c1e10401 c88b4008  .E....M.......@.
 1007d0 01d03b45 08761c8b 450c8b40 0889c28b  ..;E.v..E..@....
 1007e0 450c8b00 8b4dfcc1 e10401c8 8b0001d0  E....M..........
 1007f0 eb1e9083 45fc018b 55fc8b45 0c8b4004  ....E...U..E..@.
 100800 c1e80439 c20f8274 ffffffb8 00000000  ...9...t........
 100810 c9c30000 5589e583 ec288b15 00b01000  ....U....(......
 100820 8d45e889 54240489 0424e839 feffff83  .E..T$...$.9....
 100830 ec048b45 e8a308b0 10008b45 eca30cb0  ...E.......E....
 100840 10008b45 f0a310b0 10008b45 f4a314b0  ...E.......E....
 100850 1000c9c3 5589e583 ec288c4d f68c5df4  ....U....(.M..].
 100860 8c45f28c 55f00fb7 45f60fb7 c089c283  .E..U...E.......
 100870 e203a118 b0100089 54240889 442404c7  ........T$..D$..
 100880 04241720 1000e815 0100000f b745f60f  .$. .........E..
 100890 b7d0a118 b0100089 54240889 442404c7  ........T$..D$..
 1008a0 04242520 1000e8f5 0000000f b745f40f  .$% .........E..
 1008b0 b7d0a118 b0100089 54240889 442404c7  ........T$..D$..
 1008c0 04243320 1000e8d5 0000000f b745f20f  .$3 .........E..
 1008d0 b7d0a118 b0100089 54240889 442404c7  ........T$..D$..
 1008e0 04244120 1000e8b5 0000000f b745f00f  .$A .........E..
 1008f0 b7d0a118 b0100089 54240889 442404c7  ........T$..D$..
 100900 04244f20 1000e895 000000a1 18b01000  .$O ............
 100910 83c001a3 18b01000 c9c35589 e583ec18  ..........U.....
 100920 8b450889 442404c7 04245d20 1000e86d  .E..D$...$] ...m
 100930 000000e8 0e000000 c7042473 201000e8  ..........$s ...
 100940 5c000000 ebfe5589 e55383ec 2489eb89  \.....U..S..$...
 100950 5df4eb3f 8b45f483 c0048945 f08b45f0  ]..?.E.....E..E.
 100960 8b00c744 240408b0 10008904 24e8fefd  ...D$.......$...
 100970 ffff8b55 f08b1289 44240889 542404c7  ...U....D$..T$..
 100980 04247820 1000e815 0000008b 45f48b00  .$x ........E...
 100990 8945f483 7df40075 bb83c424 5b5dc300  .E..}..u...$[]..
 1009a0 5589e583 ec288d55 0c8d45f0 89108b45  U....(.U..E....E
 1009b0 f0894424 088b4508 89442404 c7042420  ..D$..E..D$...$ 
 1009c0 b41000e8 f3020000 8945f48b 45f40520  .........E..E.. 
 1009d0 b41000c6 0000c704 2420b410 00e8cff8  ........$ ......
 1009e0 ffffc9c3 5589e583 ec288d55 148d45f0  ....U....(.U..E.
 1009f0 89108b45 f0894424 088b4510 89442404  ...E..D$..E..D$.
 100a00 c7042420 b01000e8 af020000 8945f48b  ..$ .........E..
 100a10 45f40520 b01000c6 00008b45 0c894424  E.. .......E..D$
 100a20 088b4508 89442404 c7042420 b01000e8  ..E..D$...$ ....
 100a30 b6f8ffff c9c35589 e583ec10 c745fc00  ......U......E..
 100a40 000000eb 298b55fc 89d0c1e0 0201d001  ....).U.........
 100a50 c089c18b 45088b00 0fb6100f bed201ca  ....E...........
 100a60 83ea3089 55fc8d50 018b4508 89108b45  ..0.U..P..E....E
 100a70 088b000f b6003c2f 7e0c8b45 088b000f  ......</~..E....
 100a80 b6003c39 7ebf8b45 fcc9c355 89e55383  ..<9~..E...U..S.
 100a90 ec40c745 f4882010 008b451c 83e04085  .@.E.. ...E...@.
 100aa0 c07407c7 45f4b020 10008b45 1c83e010  .t..E.. ...E....
 100ab0 85c07404 83651cfe 837d1001 7e06837d  ..t..e...}..~..}
 100ac0 10247e0a b8000000 00e9e701 00008b45  .$~............E
 100ad0 1c83e001 84c07407 b8300000 00eb05b8  ......t..0......
 100ae0 20000000 8845ef8b 451c83e0 0285c074   ....E..E......t
 100af0 0f837d0c 007909c6 45fb2df7 5d0ceb2a  ..}..y..E.-.]..*
 100b00 8b451c83 e00485c0 75188b45 1c83e008  .E......u..E....
 100b10 85c07407 b8200000 00eb05b8 00000000  ..t.. ..........
 100b20 eb05b82b 00000088 45fb807d fb007404  ...+....E..}..t.
 100b30 836d1401 8b451c83 e02085c0 7416837d  .m...E... ..t..}
 100b40 10107506 836d1402 eb0a837d 10087504  ..u..m.....}..u.
 100b50 836d1401 c745f000 00000083 7d0c0075  .m...E......}..u
 100b60 3d8d45c4 0345f0c6 00308345 f001eb34  =.E..E...0.E...4
 100b70 8b450cba 00000000 8b4d1089 d389daf7  .E.......M......
 100b80 f189d389 450c895d e88b45e8 0345f40f  ....E..]..E..E..
 100b90 b6108d45 c40345f0 88108345 f001837d  ...E..E....E...}
 100ba0 0c0075cc 8b45f03b 45187e06 8b45f089  ..u..E.;E.~..E..
 100bb0 45188b45 18294514 8b451c83 e01185c0  E..E.)E..E......
 100bc0 751beb0a 8b4508c6 00208345 0801837d  u....E... .E...}
 100bd0 14000f9f c0836d14 0184c075 e7807dfb  ......m....u..}.
 100be0 00740d8b 45080fb6 55fb8810 83450801  .t..E...U....E..
 100bf0 8b451c83 e02085c0 7432837d 1008750c  .E... ..t2.}..u.
 100c00 8b4508c6 00308345 0801eb20 837d1010  .E...0.E... .}..
 100c10 751a8b45 08c60030 83450801 8b45f40f  u..E...0.E...E..
 100c20 b650218b 45088810 83450801 8b451c83  .P!.E....E...E..
 100c30 e01085c0 752ceb0d 8b45080f b655ef88  ....u,...E...U..
 100c40 10834508 01837d14 000f9fc0 836d1401  ..E...}......m..
 100c50 84c075e4 eb0c8b45 08c60030 83450801  ..u....E...0.E..
 100c60 eb01908b 45183b45 f00f9fc0 836d1801  ....E.;E.....m..
 100c70 84c075e2 eb128d45 c40345f0 0fb6108b  ..u....E..E.....
 100c80 45088810 83450801 837df000 0f9fc083  E....E...}......
 100c90 6df00184 c075dfeb 0a8b4508 c6002083  m....u....E... .
 100ca0 45080183 7d14000f 9fc0836d 140184c0  E...}......m....
 100cb0 75e78b45 0883c440 5b5dc355 89e583ec  u..E...@[].U....
 100cc0 488b4508 8945ece9 08040000 8b450c0f  H.E..E.......E..
 100cd0 b6003c25 74148b45 0c0fb610 8b45ec88  ..<%t..E.....E..
 100ce0 108345ec 01e9e103 0000c745 e4000000  ..E........E....
 100cf0 008b450c 83c00189 450c8b45 0c0fb600  ..E.....E..E....
 100d00 0fbec083 e82083f8 1077278b 0485d820  ..... ...w'.... 
 100d10 1000ffe0 834de410 ebd7834d e404ebd1  .....M.....M....
 100d20 834de408 ebcb834d e420ebc5 834de401  .M.....M. ...M..
 100d30 ebbfc745 e0ffffff ff8b450c 0fb6003c  ...E......E....<
 100d40 2f7e1a8b 450c0fb6 003c397f 108d450c  /~..E....<9...E.
 100d50 890424e8 defcffff 8945e0eb 258b450c  ..$......E..%.E.
 100d60 0fb6003c 2a751b8b 45108d50 04895510  ...<*u..E..P..U.
 100d70 8b008945 e0837de0 007907f7 5de0834d  ...E..}..y..]..M
 100d80 e410c745 dcffffff ff8b450c 0fb6003c  ...E......E....<
 100d90 2e75528b 450c83c0 0189450c 8b450c0f  .uR.E.....E..E..
 100da0 b6003c2f 7e1a8b45 0c0fb600 3c397f10  ..</~..E....<9..
 100db0 8d450c89 0424e87b fcffff89 45dceb18  .E...$.{....E...
 100dc0 8b450c0f b6003c2a 750e8b45 108d5004  .E....<*u..E..P.
 100dd0 8955108b 008945dc 837ddc00 7907c745  .U....E..}..y..E
 100de0 dc000000 008b450c 0fb6003c 6874148b  ......E....<ht..
 100df0 450c0fb6 003c6c74 0a8b450c 0fb6003c  E....<lt..E....<
 100e00 4c75098b 450c83c0 0189450c 8b450c0f  Lu..E.....E..E..
 100e10 b6000fbe c083e858 83f8200f 87710200  .......X.. ..q..
 100e20 008b0485 1c211000 ffe08b45 e483e010  .....!.....E....
 100e30 85c07516 eb0a8b45 ecc60020 8345ec01  ..u....E... .E..
 100e40 836de001 837de000 7fec8b45 108d5004  .m...}.....E..P.
 100e50 8955108b 0089c28b 45ec8810 8345ec01  .U......E....E..
 100e60 eb0a8b45 ecc60020 8345ec01 836de001  ...E... .E...m..
 100e70 837de000 7fece950 0200008b 45108d50  .}.....P....E..P
 100e80 04895510 8b008945 e88b45e8 890424e8  ..U....E..E...$.
 100e90 a3f7ffff 8945f483 7ddc0079 088b45f4  .....E..}..y..E.
 100ea0 8945dceb 0e8b45f4 3b45dc7e 068b45dc  .E....E.;E.~..E.
 100eb0 8945f48b 45e483e0 1085c075 1deb0a8b  .E..E......u....
 100ec0 45ecc600 208345ec 018b45e0 3b45f40f  E... .E...E.;E..
 100ed0 9fc0836d e00184c0 75e5c745 f0000000  ...m....u..E....
 100ee0 00eb178b 45e80fb6 108b45ec 88108345  ....E.....E....E
 100ef0 ec018345 e8018345 f0018b45 f03b45f4  ...E...E...E.;E.
 100f00 7ce1eb0a 8b45ecc6 00208345 ec018b45  |....E... .E...E
 100f10 e03b45f4 0f9fc083 6de00184 c075e5e9  .;E.....m....u..
 100f20 a7010000 8b45108d 50048955 108b008b  .....E..P..U....
 100f30 55e48954 24148b55 dc895424 108b55e0  U..T$..U..T$..U.
 100f40 8954240c c7442408 08000000 89442404  .T$..D$......D$.
 100f50 8b45ec89 0424e830 fbffff89 45ece968  .E...$.0....E..h
 100f60 01000083 7de0ff75 0bc745e0 08000000  ....}..u..E.....
 100f70 834de401 8b45108d 50048955 108b008b  .M...E..P..U....
 100f80 55e48954 24148b55 dc895424 108b55e0  U..T$..U..T$..U.
 100f90 8954240c c7442408 10000000 89442404  .T$..D$......D$.
 100fa0 8b45ec89 0424e8e0 faffff89 45ece918  .E...$......E...
 100fb0 01000083 4de4408b 45108d50 04895510  ....M.@.E..P..U.
 100fc0 8b008b55 e4895424 148b55dc 89542410  ...U..T$..U..T$.
 100fd0 8b55e089 54240cc7 44240810 00000089  .U..T$..D$......
 100fe0 4424048b 45ec8904 24e89dfa ffff8945  D$..E...$......E
 100ff0 ece9d500 0000834d e4028b45 108d5004  .......M...E..P.
 101000 8955108b 008b55e4 89542414 8b55dc89  .U....U..T$..U..
 101010 5424108b 55e08954 240cc744 24080a00  T$..U..T$..D$...
 101020 00008944 24048b45 ec890424 e85afaff  ...D$..E...$.Z..
 101030 ff8945ec e9920000 008b4510 8d500489  ..E.......E..P..
 101040 55108b00 8b55e489 5424148b 55dc8954  U....U..T$..U..T
 101050 24108b55 e0895424 0cc74424 08020000  $..U..T$..D$....
 101060 00894424 048b45ec 890424e8 1bfaffff  ..D$..E...$.....
 101070 8945eceb 568b4510 8d500489 55108b00  .E..V.E..P..U...
 101080 8945d88b 55ec8b45 0829c28b 45d88910  .E..U..E.)..E...
 101090 eb398b45 0c0fb600 3c25740a 8b45ecc6  .9.E....<%t..E..
 1010a0 00258345 ec018b45 0c0fb600 84c07411  .%.E...E......t.
 1010b0 8b450c0f b6108b45 ec881083 45ec01eb  .E.....E....E...
 1010c0 098b450c 83e80189 450c908b 450c83c0  ..E.....E...E...
 1010d0 0189450c 8b450c0f b60084c0 0f85eafb  ..E..E..........
 1010e0 ffff8b45 ecc60000 8b55ec8b 450889d1  ...E.....U..E...
 1010f0 29c189c8 c9c30000 5589e583 ec18e811  ).......U.......
 101100 f7ffffe8 34f0ffff c70424a0 211000e8  ....4.....$.!...
 101110 8cf8ffff c7442408 b0211000 c7442404  .....D$..!...D$.
 101120 02000000 c7042400 000000e8 b4f8ffff  ......$.........
 101130 c70424c3 211000e8 def7ffff b8000000  ..$.!...........
 101140 00c9c300 00000000 00000000 00000000  ................
 101150 00000000 00000000 00000000 00000000  ................
 101160 00000000 00000000 00000000 00000000  ................
 101170 00000000 00000000 00000000 00000000  ................
 101180 00000000 00000000 00000000 00000000  ................
 101190 00000000 00000000 00000000 00000000  ................
 1011a0 00000000 00000000 00000000 00000000  ................
 1011b0 00000000 00000000 00000000 00000000  ................
 1011c0 00000000 00000000 00000000 00000000  ................
 1011d0 00000000 00000000 00000000 00000000  ................
 1011e0 00000000 00000000 00000000 00000000  ................
 1011f0 00000000 00000000 00000000 00000000  ................
 101200 00000000 00000000 00000000 00000000  ................
 101210 00000000 00000000 00000000 00000000  ................
 101220 00000000 00000000 00000000 00000000  ................
 101230 00000000 00000000 00000000 00000000  ................
 101240 00000000 00000000 00000000 00000000  ................
 101250 00000000 00000000 00000000 00000000  ................
 101260 00000000 00000000 00000000 00000000  ................
 101270 00000000 00000000 00000000 00000000  ................
 101280 00000000 00000000 00000000 00000000  ................
 101290 00000000 00000000 00000000 00000000  ................
 1012a0 00000000 00000000 00000000 00000000  ................
 1012b0 00000000 00000000 00000000 00000000  ................
 1012c0 00000000 00000000 00000000 00000000  ................
 1012d0 00000000 00000000 00000000 00000000  ................
 1012e0 00000000 00000000 00000000 00000000  ................
 1012f0 00000000 00000000 00000000 00000000  ................
 101300 00000000 00000000 00000000 00000000  ................
 101310 00000000 00000000 00000000 00000000  ................
 101320 00000000 00000000 00000000 00000000  ................
 101330 00000000 00000000 00000000 00000000  ................
 101340 00000000 00000000 00000000 00000000  ................
 101350 00000000 00000000 00000000 00000000  ................
 101360 00000000 00000000 00000000 00000000  ................
 101370 00000000 00000000 00000000 00000000  ................
 101380 00000000 00000000 00000000 00000000  ................
 101390 00000000 00000000 00000000 00000000  ................
 1013a0 00000000 00000000 00000000 00000000  ................
 1013b0 00000000 00000000 00000000 00000000  ................
 1013c0 00000000 00000000 00000000 00000000  ................
 1013d0 00000000 00000000 00000000 00000000  ................
 1013e0 00000000 00000000 00000000 00000000  ................
 1013f0 00000000 00000000 00000000 00000000  ................
 101400 00000000 00000000 00000000 00000000  ................
 101410 00000000 00000000 00000000 00000000  ................
 101420 00000000 00000000 00000000 00000000  ................
 101430 00000000 00000000 00000000 00000000  ................
 101440 00000000 00000000 00000000 00000000  ................
 101450 00000000 00000000 00000000 00000000  ................
 101460 00000000 00000000 00000000 00000000  ................
 101470 00000000 00000000 00000000 00000000  ................
 101480 00000000 00000000 00000000 00000000  ................
 101490 00000000 00000000 00000000 00000000  ................
 1014a0 00000000 00000000 00000000 00000000  ................
 1014b0 00000000 00000000 00000000 00000000  ................
 1014c0 00000000 00000000 00000000 00000000  ................
 1014d0 00000000 00000000 00000000 00000000  ................
 1014e0 00000000 00000000 00000000 00000000  ................
 1014f0 00000000 00000000 00000000 00000000  ................
 101500 00000000 00000000 00000000 00000000  ................
 101510 00000000 00000000 00000000 00000000  ................
 101520 00000000 00000000 00000000 00000000  ................
 101530 00000000 00000000 00000000 00000000  ................
 101540 00000000 00000000 00000000 00000000  ................
 101550 00000000 00000000 00000000 00000000  ................
 101560 00000000 00000000 00000000 00000000  ................
 101570 00000000 00000000 00000000 00000000  ................
 101580 00000000 00000000 00000000 00000000  ................
 101590 00000000 00000000 00000000 00000000  ................
 1015a0 00000000 00000000 00000000 00000000  ................
 1015b0 00000000 00000000 00000000 00000000  ................
 1015c0 00000000 00000000 00000000 00000000  ................
 1015d0 00000000 00000000 00000000 00000000  ................
 1015e0 00000000 00000000 00000000 00000000  ................
 1015f0 00000000 00000000 00000000 00000000  ................
 101600 00000000 00000000 00000000 00000000  ................
 101610 00000000 00000000 00000000 00000000  ................
 101620 00000000 00000000 00000000 00000000  ................
 101630 00000000 00000000 00000000 00000000  ................
 101640 00000000 00000000 00000000 00000000  ................
 101650 00000000 00000000 00000000 00000000  ................
 101660 00000000 00000000 00000000 00000000  ................
 101670 00000000 00000000 00000000 00000000  ................
 101680 00000000 00000000 00000000 00000000  ................
 101690 00000000 00000000 00000000 00000000  ................
 1016a0 00000000 00000000 00000000 00000000  ................
 1016b0 00000000 00000000 00000000 00000000  ................
 1016c0 00000000 00000000 00000000 00000000  ................
 1016d0 00000000 00000000 00000000 00000000  ................
 1016e0 00000000 00000000 00000000 00000000  ................
 1016f0 00000000 00000000 00000000 00000000  ................
 101700 00000000 00000000 00000000 00000000  ................
 101710 00000000 00000000 00000000 00000000  ................
 101720 00000000 00000000 00000000 00000000  ................
 101730 00000000 00000000 00000000 00000000  ................
 101740 00000000 00000000 00000000 00000000  ................
 101750 00000000 00000000 00000000 00000000  ................
 101760 00000000 00000000 00000000 00000000  ................
 101770 00000000 00000000 00000000 00000000  ................
 101780 00000000 00000000 00000000 00000000  ................
 101790 00000000 00000000 00000000 00000000  ................
 1017a0 00000000 00000000 00000000 00000000  ................
 1017b0 00000000 00000000 00000000 00000000  ................
 1017c0 00000000 00000000 00000000 00000000  ................
 1017d0 00000000 00000000 00000000 00000000  ................
 1017e0 00000000 00000000 00000000 00000000  ................
 1017f0 00000000 00000000 00000000 00000000  ................
 101800 00000000 00000000 00000000 00000000  ................
 101810 00000000 00000000 00000000 00000000  ................
 101820 00000000 00000000 00000000 00000000  ................
 101830 00000000 00000000 00000000 00000000  ................
 101840 00000000 00000000 00000000 00000000  ................
 101850 00000000 00000000 00000000 00000000  ................
 101860 00000000 00000000 00000000 00000000  ................
 101870 00000000 00000000 00000000 00000000  ................
 101880 00000000 00000000 00000000 00000000  ................
 101890 00000000 00000000 00000000 00000000  ................
 1018a0 00000000 00000000 00000000 00000000  ................
 1018b0 00000000 00000000 00000000 00000000  ................
 1018c0 00000000 00000000 00000000 00000000  ................
 1018d0 00000000 00000000 00000000 00000000  ................
 1018e0 00000000 00000000 00000000 00000000  ................
 1018f0 00000000 00000000 00000000 00000000  ................
 101900 00000000 00000000 00000000 00000000  ................
 101910 00000000 00000000 00000000 00000000  ................
 101920 00000000 00000000 00000000 00000000  ................
 101930 00000000 00000000 00000000 00000000  ................
 101940 00000000 00000000 00000000 00000000  ................
 101950 00000000 00000000 00000000 00000000  ................
 101960 00000000 00000000 00000000 00000000  ................
 101970 00000000 00000000 00000000 00000000  ................
 101980 00000000 00000000 00000000 00000000  ................
 101990 00000000 00000000 00000000 00000000  ................
 1019a0 00000000 00000000 00000000 00000000  ................
 1019b0 00000000 00000000 00000000 00000000  ................
 1019c0 00000000 00000000 00000000 00000000  ................
 1019d0 00000000 00000000 00000000 00000000  ................
 1019e0 00000000 00000000 00000000 00000000  ................
 1019f0 00000000 00000000 00000000 00000000  ................
 101a00 00000000 00000000 00000000 00000000  ................
 101a10 00000000 00000000 00000000 00000000  ................
 101a20 00000000 00000000 00000000 00000000  ................
 101a30 00000000 00000000 00000000 00000000  ................
 101a40 00000000 00000000 00000000 00000000  ................
 101a50 00000000 00000000 00000000 00000000  ................
 101a60 00000000 00000000 00000000 00000000  ................
 101a70 00000000 00000000 00000000 00000000  ................
 101a80 00000000 00000000 00000000 00000000  ................
 101a90 00000000 00000000 00000000 00000000  ................
 101aa0 00000000 00000000 00000000 00000000  ................
 101ab0 00000000 00000000 00000000 00000000  ................
 101ac0 00000000 00000000 00000000 00000000  ................
 101ad0 00000000 00000000 00000000 00000000  ................
 101ae0 00000000 00000000 00000000 00000000  ................
 101af0 00000000 00000000 00000000 00000000  ................
 101b00 00000000 00000000 00000000 00000000  ................
 101b10 00000000 00000000 00000000 00000000  ................
 101b20 00000000 00000000 00000000 00000000  ................
 101b30 00000000 00000000 00000000 00000000  ................
 101b40 00000000 00000000 00000000 00000000  ................
 101b50 00000000 00000000 00000000 00000000  ................
 101b60 00000000 00000000 00000000 00000000  ................
 101b70 00000000 00000000 00000000 00000000  ................
 101b80 00000000 00000000 00000000 00000000  ................
 101b90 00000000 00000000 00000000 00000000  ................
 101ba0 00000000 00000000 00000000 00000000  ................
 101bb0 00000000 00000000 00000000 00000000  ................
 101bc0 00000000 00000000 00000000 00000000  ................
 101bd0 00000000 00000000 00000000 00000000  ................
 101be0 00000000 00000000 00000000 00000000  ................
 101bf0 00000000 00000000 00000000 00000000  ................
 101c00 00000000 00000000 00000000 00000000  ................
 101c10 00000000 00000000 00000000 00000000  ................
 101c20 00000000 00000000 00000000 00000000  ................
 101c30 00000000 00000000 00000000 00000000  ................
 101c40 00000000 00000000 00000000 00000000  ................
 101c50 00000000 00000000 00000000 00000000  ................
 101c60 00000000 00000000 00000000 00000000  ................
 101c70 00000000 00000000 00000000 00000000  ................
 101c80 00000000 00000000 00000000 00000000  ................
 101c90 00000000 00000000 00000000 00000000  ................
 101ca0 00000000 00000000 00000000 00000000  ................
 101cb0 00000000 00000000 00000000 00000000  ................
 101cc0 00000000 00000000 00000000 00000000  ................
 101cd0 00000000 00000000 00000000 00000000  ................
 101ce0 00000000 00000000 00000000 00000000  ................
 101cf0 00000000 00000000 00000000 00000000  ................
 101d00 00000000 00000000 00000000 00000000  ................
 101d10 00000000 00000000 00000000 00000000  ................
 101d20 00000000 00000000 00000000 00000000  ................
 101d30 00000000 00000000 00000000 00000000  ................
 101d40 00000000 00000000 00000000 00000000  ................
 101d50 00000000 00000000 00000000 00000000  ................
 101d60 00000000 00000000 00000000 00000000  ................
 101d70 00000000 00000000 00000000 00000000  ................
 101d80 00000000 00000000 00000000 00000000  ................
 101d90 00000000 00000000 00000000 00000000  ................
 101da0 00000000 00000000 00000000 00000000  ................
 101db0 00000000 00000000 00000000 00000000  ................
 101dc0 00000000 00000000 00000000 00000000  ................
 101dd0 00000000 00000000 00000000 00000000  ................
 101de0 00000000 00000000 00000000 00000000  ................
 101df0 00000000 00000000 00000000 00000000  ................
 101e00 00000000 00000000 00000000 00000000  ................
 101e10 00000000 00000000 00000000 00000000  ................
 101e20 00000000 00000000 00000000 00000000  ................
 101e30 00000000 00000000 00000000 00000000  ................
 101e40 00000000 00000000 00000000 00000000  ................
 101e50 00000000 00000000 00000000 00000000  ................
 101e60 00000000 00000000 00000000 00000000  ................
 101e70 00000000 00000000 00000000 00000000  ................
 101e80 00000000 00000000 00000000 00000000  ................
 101e90 00000000 00000000 00000000 00000000  ................
 101ea0 00000000 00000000 00000000 00000000  ................
 101eb0 00000000 00000000 00000000 00000000  ................
 101ec0 00000000 00000000 00000000 00000000  ................
 101ed0 00000000 00000000 00000000 00000000  ................
 101ee0 00000000 00000000 00000000 00000000  ................
 101ef0 00000000 00000000 00000000 00000000  ................
 101f00 00000000 00000000 00000000 00000000  ................
 101f10 00000000 00000000 00000000 00000000  ................
 101f20 00000000 00000000 00000000 00000000  ................
 101f30 00000000 00000000 00000000 00000000  ................
 101f40 00000000 00000000 00000000 00000000  ................
 101f50 00000000 00000000 00000000 00000000  ................
 101f60 00000000 00000000 00000000 00000000  ................
 101f70 00000000 00000000 00000000 00000000  ................
 101f80 00000000 00000000 00000000 00000000  ................
 101f90 00000000 00000000 00000000 00000000  ................
 101fa0 00000000 00000000 00000000 00000000  ................
 101fb0 00000000 00000000 00000000 00000000  ................
 101fc0 00000000 00000000 00000000 00000000  ................
 101fd0 00000000 00000000 00000000 00000000  ................
 101fe0 00000000 00000000 00000000 00000000  ................
 101ff0 00000000 00000000 00000000 00000000  ................
Contents of section .data:
 102000 00800b00 3078002e 73747274 6162002e  ....0x..strtab..
 102010 73796d74 61620025 643a2040 72696e67  symtab.%d: @ring
 102020 2025640a 0025643a 20206373 203d2025   %d..%d:  cs = %
 102030 780a0025 643a2020 6473203d 2025780a  x..%d:  ds = %x.
 102040 0025643a 20206573 203d2025 780a0025  .%d:  es = %x..%
 102050 643a2020 7373203d 2025780a 002a2a2a  d:  ss = %x..***
 102060 20537973 74656d20 70616e69 633a2025   System panic: %
 102070 730a002a 2a2a0a00 2020205b 30782578  s..***..   [0x%x
 102080 5d202573 0a000000 30313233 34353637  ] %s....01234567
 102090 38394142 43444546 4748494a 4b4c4d4e  89ABCDEFGHIJKLMN
 1020a0 4f505152 53545556 5758595a 00000000  OPQRSTUVWXYZ....
 1020b0 30313233 34353637 38396162 63646566  0123456789abcdef
 1020c0 6768696a 6b6c6d6e 6f707172 73747576  ghijklmnopqrstuv
 1020d0 7778797a 00000000 200d1000 320d1000  wxyz.... ...2...
 1020e0 320d1000 260d1000 320d1000 320d1000  2...&...2...2...
 1020f0 320d1000 320d1000 320d1000 320d1000  2...2...2...2...
 102100 320d1000 1a0d1000 320d1000 140d1000  2.......2.......
 102110 320d1000 320d1000 2c0d1000 b70f1000  2...2...,.......
 102120 92101000 92101000 92101000 92101000  ................
 102130 92101000 92101000 92101000 92101000  ................
 102140 92101000 39101000 2a0e1000 f60f1000  ....9...*.......
 102150 92101000 92101000 92101000 92101000  ................
 102160 f60f1000 92101000 92101000 92101000  ................
 102170 92101000 75101000 240f1000 630f1000  ....u...$...c...
 102180 92101000 92101000 7b0e1000 92101000  ........{.......
 102190 fa0f1000 92101000 92101000 b30f1000  ................
 1021a0 48656c6c 6f202c20 4d6f7261 696e0a00  Hello , Morain..
 1021b0 48656c6c 6f202c20 4f53206b 65726e65  Hello , OS kerne
 1021c0 6c0a0074 65737400 00000000 00000000  l..test.........
 1021d0 00000000 00000000 00000000 00000000  ................
 1021e0 00000000 00000000 00000000 00000000  ................
 1021f0 00000000 00000000 00000000 00000000  ................
 102200 00000000 00000000 00000000 00000000  ................
 102210 00000000 00000000 00000000 00000000  ................
 102220 00000000 00000000 00000000 00000000  ................
 102230 00000000 00000000 00000000 00000000  ................
 102240 00000000 00000000 00000000 00000000  ................
 102250 00000000 00000000 00000000 00000000  ................
 102260 00000000 00000000 00000000 00000000  ................
 102270 00000000 00000000 00000000 00000000  ................
 102280 00000000 00000000 00000000 00000000  ................
 102290 00000000 00000000 00000000 00000000  ................
 1022a0 00000000 00000000 00000000 00000000  ................
 1022b0 00000000 00000000 00000000 00000000  ................
 1022c0 00000000 00000000 00000000 00000000  ................
 1022d0 00000000 00000000 00000000 00000000  ................
 1022e0 00000000 00000000 00000000 00000000  ................
 1022f0 00000000 00000000 00000000 00000000  ................
 102300 00000000 00000000 00000000 00000000  ................
 102310 00000000 00000000 00000000 00000000  ................
 102320 00000000 00000000 00000000 00000000  ................
 102330 00000000 00000000 00000000 00000000  ................
 102340 00000000 00000000 00000000 00000000  ................
 102350 00000000 00000000 00000000 00000000  ................
 102360 00000000 00000000 00000000 00000000  ................
 102370 00000000 00000000 00000000 00000000  ................
 102380 00000000 00000000 00000000 00000000  ................
 102390 00000000 00000000 00000000 00000000  ................
 1023a0 00000000 00000000 00000000 00000000  ................
 1023b0 00000000 00000000 00000000 00000000  ................
 1023c0 00000000 00000000 00000000 00000000  ................
 1023d0 00000000 00000000 00000000 00000000  ................
 1023e0 00000000 00000000 00000000 00000000  ................
 1023f0 00000000 00000000 00000000 00000000  ................
 102400 00000000 00000000 00000000 00000000  ................
 102410 00000000 00000000 00000000 00000000  ................
 102420 00000000 00000000 00000000 00000000  ................
 102430 00000000 00000000 00000000 00000000  ................
 102440 00000000 00000000 00000000 00000000  ................
 102450 00000000 00000000 00000000 00000000  ................
 102460 00000000 00000000 00000000 00000000  ................
 102470 00000000 00000000 00000000 00000000  ................
 102480 00000000 00000000 00000000 00000000  ................
 102490 00000000 00000000 00000000 00000000  ................
 1024a0 00000000 00000000 00000000 00000000  ................
 1024b0 00000000 00000000 00000000 00000000  ................
 1024c0 00000000 00000000 00000000 00000000  ................
 1024d0 00000000 00000000 00000000 00000000  ................
 1024e0 00000000 00000000 00000000 00000000  ................
 1024f0 00000000 00000000 00000000 00000000  ................
 102500 00000000 00000000 00000000 00000000  ................
 102510 00000000 00000000 00000000 00000000  ................
 102520 00000000 00000000 00000000 00000000  ................
 102530 00000000 00000000 00000000 00000000  ................
 102540 00000000 00000000 00000000 00000000  ................
 102550 00000000 00000000 00000000 00000000  ................
 102560 00000000 00000000 00000000 00000000  ................
 102570 00000000 00000000 00000000 00000000  ................
 102580 00000000 00000000 00000000 00000000  ................
 102590 00000000 00000000 00000000 00000000  ................
 1025a0 00000000 00000000 00000000 00000000  ................
 1025b0 00000000 00000000 00000000 00000000  ................
 1025c0 00000000 00000000 00000000 00000000  ................
 1025d0 00000000 00000000 00000000 00000000  ................
 1025e0 00000000 00000000 00000000 00000000  ................
 1025f0 00000000 00000000 00000000 00000000  ................
 102600 00000000 00000000 00000000 00000000  ................
 102610 00000000 00000000 00000000 00000000  ................
 102620 00000000 00000000 00000000 00000000  ................
 102630 00000000 00000000 00000000 00000000  ................
 102640 00000000 00000000 00000000 00000000  ................
 102650 00000000 00000000 00000000 00000000  ................
 102660 00000000 00000000 00000000 00000000  ................
 102670 00000000 00000000 00000000 00000000  ................
 102680 00000000 00000000 00000000 00000000  ................
 102690 00000000 00000000 00000000 00000000  ................
 1026a0 00000000 00000000 00000000 00000000  ................
 1026b0 00000000 00000000 00000000 00000000  ................
 1026c0 00000000 00000000 00000000 00000000  ................
 1026d0 00000000 00000000 00000000 00000000  ................
 1026e0 00000000 00000000 00000000 00000000  ................
 1026f0 00000000 00000000 00000000 00000000  ................
 102700 00000000 00000000 00000000 00000000  ................
 102710 00000000 00000000 00000000 00000000  ................
 102720 00000000 00000000 00000000 00000000  ................
 102730 00000000 00000000 00000000 00000000  ................
 102740 00000000 00000000 00000000 00000000  ................
 102750 00000000 00000000 00000000 00000000  ................
 102760 00000000 00000000 00000000 00000000  ................
 102770 00000000 00000000 00000000 00000000  ................
 102780 00000000 00000000 00000000 00000000  ................
 102790 00000000 00000000 00000000 00000000  ................
 1027a0 00000000 00000000 00000000 00000000  ................
 1027b0 00000000 00000000 00000000 00000000  ................
 1027c0 00000000 00000000 00000000 00000000  ................
 1027d0 00000000 00000000 00000000 00000000  ................
 1027e0 00000000 00000000 00000000 00000000  ................
 1027f0 00000000 00000000 00000000 00000000  ................
 102800 00000000 00000000 00000000 00000000  ................
 102810 00000000 00000000 00000000 00000000  ................
 102820 00000000 00000000 00000000 00000000  ................
 102830 00000000 00000000 00000000 00000000  ................
 102840 00000000 00000000 00000000 00000000  ................
 102850 00000000 00000000 00000000 00000000  ................
 102860 00000000 00000000 00000000 00000000  ................
 102870 00000000 00000000 00000000 00000000  ................
 102880 00000000 00000000 00000000 00000000  ................
 102890 00000000 00000000 00000000 00000000  ................
 1028a0 00000000 00000000 00000000 00000000  ................
 1028b0 00000000 00000000 00000000 00000000  ................
 1028c0 00000000 00000000 00000000 00000000  ................
 1028d0 00000000 00000000 00000000 00000000  ................
 1028e0 00000000 00000000 00000000 00000000  ................
 1028f0 00000000 00000000 00000000 00000000  ................
 102900 00000000 00000000 00000000 00000000  ................
 102910 00000000 00000000 00000000 00000000  ................
 102920 00000000 00000000 00000000 00000000  ................
 102930 00000000 00000000 00000000 00000000  ................
 102940 00000000 00000000 00000000 00000000  ................
 102950 00000000 00000000 00000000 00000000  ................
 102960 00000000 00000000 00000000 00000000  ................
 102970 00000000 00000000 00000000 00000000  ................
 102980 00000000 00000000 00000000 00000000  ................
 102990 00000000 00000000 00000000 00000000  ................
 1029a0 00000000 00000000 00000000 00000000  ................
 1029b0 00000000 00000000 00000000 00000000  ................
 1029c0 00000000 00000000 00000000 00000000  ................
 1029d0 00000000 00000000 00000000 00000000  ................
 1029e0 00000000 00000000 00000000 00000000  ................
 1029f0 00000000 00000000 00000000 00000000  ................
 102a00 00000000 00000000 00000000 00000000  ................
 102a10 00000000 00000000 00000000 00000000  ................
 102a20 00000000 00000000 00000000 00000000  ................
 102a30 00000000 00000000 00000000 00000000  ................
 102a40 00000000 00000000 00000000 00000000  ................
 102a50 00000000 00000000 00000000 00000000  ................
 102a60 00000000 00000000 00000000 00000000  ................
 102a70 00000000 00000000 00000000 00000000  ................
 102a80 00000000 00000000 00000000 00000000  ................
 102a90 00000000 00000000 00000000 00000000  ................
 102aa0 00000000 00000000 00000000 00000000  ................
 102ab0 00000000 00000000 00000000 00000000  ................
 102ac0 00000000 00000000 00000000 00000000  ................
 102ad0 00000000 00000000 00000000 00000000  ................
 102ae0 00000000 00000000 00000000 00000000  ................
 102af0 00000000 00000000 00000000 00000000  ................
 102b00 00000000 00000000 00000000 00000000  ................
 102b10 00000000 00000000 00000000 00000000  ................
 102b20 00000000 00000000 00000000 00000000  ................
 102b30 00000000 00000000 00000000 00000000  ................
 102b40 00000000 00000000 00000000 00000000  ................
 102b50 00000000 00000000 00000000 00000000  ................
 102b60 00000000 00000000 00000000 00000000  ................
 102b70 00000000 00000000 00000000 00000000  ................
 102b80 00000000 00000000 00000000 00000000  ................
 102b90 00000000 00000000 00000000 00000000  ................
 102ba0 00000000 00000000 00000000 00000000  ................
 102bb0 00000000 00000000 00000000 00000000  ................
 102bc0 00000000 00000000 00000000 00000000  ................
 102bd0 00000000 00000000 00000000 00000000  ................
 102be0 00000000 00000000 00000000 00000000  ................
 102bf0 00000000 00000000 00000000 00000000  ................
 102c00 00000000 00000000 00000000 00000000  ................
 102c10 00000000 00000000 00000000 00000000  ................
 102c20 00000000 00000000 00000000 00000000  ................
 102c30 00000000 00000000 00000000 00000000  ................
 102c40 00000000 00000000 00000000 00000000  ................
 102c50 00000000 00000000 00000000 00000000  ................
 102c60 00000000 00000000 00000000 00000000  ................
 102c70 00000000 00000000 00000000 00000000  ................
 102c80 00000000 00000000 00000000 00000000  ................
 102c90 00000000 00000000 00000000 00000000  ................
 102ca0 00000000 00000000 00000000 00000000  ................
 102cb0 00000000 00000000 00000000 00000000  ................
 102cc0 00000000 00000000 00000000 00000000  ................
 102cd0 00000000 00000000 00000000 00000000  ................
 102ce0 00000000 00000000 00000000 00000000  ................
 102cf0 00000000 00000000 00000000 00000000  ................
 102d00 00000000 00000000 00000000 00000000  ................
 102d10 00000000 00000000 00000000 00000000  ................
 102d20 00000000 00000000 00000000 00000000  ................
 102d30 00000000 00000000 00000000 00000000  ................
 102d40 00000000 00000000 00000000 00000000  ................
 102d50 00000000 00000000 00000000 00000000  ................
 102d60 00000000 00000000 00000000 00000000  ................
 102d70 00000000 00000000 00000000 00000000  ................
 102d80 00000000 00000000 00000000 00000000  ................
 102d90 00000000 00000000 00000000 00000000  ................
 102da0 00000000 00000000 00000000 00000000  ................
 102db0 00000000 00000000 00000000 00000000  ................
 102dc0 00000000 00000000 00000000 00000000  ................
 102dd0 00000000 00000000 00000000 00000000  ................
 102de0 00000000 00000000 00000000 00000000  ................
 102df0 00000000 00000000 00000000 00000000  ................
 102e00 00000000 00000000 00000000 00000000  ................
 102e10 00000000 00000000 00000000 00000000  ................
 102e20 00000000 00000000 00000000 00000000  ................
 102e30 00000000 00000000 00000000 00000000  ................
 102e40 00000000 00000000 00000000 00000000  ................
 102e50 00000000 00000000 00000000 00000000  ................
 102e60 00000000 00000000 00000000 00000000  ................
 102e70 00000000 00000000 00000000 00000000  ................
 102e80 00000000 00000000 00000000 00000000  ................
 102e90 00000000 00000000 00000000 00000000  ................
 102ea0 00000000 00000000 00000000 00000000  ................
 102eb0 00000000 00000000 00000000 00000000  ................
 102ec0 00000000 00000000 00000000 00000000  ................
 102ed0 00000000 00000000 00000000 00000000  ................
 102ee0 00000000 00000000 00000000 00000000  ................
 102ef0 00000000 00000000 00000000 00000000  ................
 102f00 00000000 00000000 00000000 00000000  ................
 102f10 00000000 00000000 00000000 00000000  ................
 102f20 00000000 00000000 00000000 00000000  ................
 102f30 00000000 00000000 00000000 00000000  ................
 102f40 00000000 00000000 00000000 00000000  ................
 102f50 00000000 00000000 00000000 00000000  ................
 102f60 00000000 00000000 00000000 00000000  ................
 102f70 00000000 00000000 00000000 00000000  ................
 102f80 00000000 00000000 00000000 00000000  ................
 102f90 00000000 00000000 00000000 00000000  ................
 102fa0 00000000 00000000 00000000 00000000  ................
 102fb0 00000000 00000000 00000000 00000000  ................
 102fc0 00000000 00000000 00000000 00000000  ................
 102fd0 00000000 00000000 00000000 00000000  ................
 102fe0 00000000 00000000 00000000 00000000  ................
 102ff0 00000000 00000000 00000000 00000000  ................
Contents of section .stab:
 10c000 01000000 0000ff03 1d120000 01000000  ................
 10c010 64000000 00001000 00000000 44002b00  d...........D.+.
 10c020 00001000 00000000 44002c00 04001000  ........D.,.....
 10c030 00000000 44002d00 08001000 00000000  ....D.-.........
 10c040 44003400 0c001000 00000000 44003600  D.4.........D.6.
 10c050 0d001000 00000000 44003700 12001000  ........D.7.....
 10c060 00000000 44003800 17001000 00000000  ....D.8.........
 10c070 44003900 1a001000 00000000 44003a00  D.9.........D.:.
 10c080 20001000 00000000 44003c00 25001000   .......D.<.%...
 10c090 00000000 44003d00 26001000 00000000  ....D.=.&.......
 10c0a0 64000000 00000000 0d000000 64000200  d...........d...
 10c0b0 28001000 1e000000 64000200 28001000  (.......d...(...
 10c0c0 30000000 3c000000 00000000 3f000000  0...<.......?...
 10c0d0 80000000 00000000 69000000 80000000  ........i.......
 10c0e0 00000000 83000000 80000000 00000000  ................
 10c0f0 b2000000 80000000 00000000 dd000000  ................
 10c100 80000000 00000000 0d010000 80000000  ................
 10c110 00000000 5e010000 80000000 00000000  ....^...........
 10c120 a3010000 80000000 00000000 ce010000  ................
 10c130 80000000 00000000 fd010000 80000000  ................
 10c140 00000000 27020000 80000000 00000000  ....'...........
 10c150 50020000 80000000 00000000 6a020000  P...........j...
 10c160 80000000 00000000 85020000 80000000  ................
 10c170 00000000 a6020000 80000000 00000000  ................
 10c180 c5020000 80000000 00000000 e4020000  ................
 10c190 80000000 00000000 05030000 80000000  ................
 10c1a0 00000000 19030000 82000000 905d0000  .............]..
 10c1b0 2b030000 82000000 181e0000 3b030000  +...........;...
 10c1c0 80000d00 00000000 51030000 80000e00  ........Q.......
 10c1d0 00000000 66030000 80000f00 00000000  ....f...........
 10c1e0 7c030000 80001000 00000000 91030000  |...............
 10c1f0 80001100 00000000 a7030000 80001200  ................
 10c200 00000000 00000000 a2000000 00000000  ................
 10c210 bb030000 80000000 00000000 af040000  ................
 10c220 80002000 00000000 00000000 a2000000  .. .............
 10c230 00000000 c9040000 24001a00 28001000  ........$...(...
 10c240 00000000 2e000000 28001000 00000000  ........(.......
 10c250 44001b00 00000000 00000000 44001d00  D...........D...
 10c260 06000000 00000000 44002400 2c000000  ........D.$.,...
 10c270 00000000 44002500 40000000 00000000  ....D.%.@.......
 10c280 44002600 5b000000 00000000 44002700  D.&.[.......D.'.
 10c290 6f000000 00000000 44002800 86000000  o.......D.(.....
 10c2a0 dd040000 80001d00 f6ffffff 00000000  ................
 10c2b0 c0000000 00000000 00000000 e0000000  ................
 10c2c0 88000000 00000000 24000000 88000000  ........$.......
 10c2d0 00000000 4e000000 b0001000 f2040000  ....N...........
 10c2e0 24002b00 b0001000 00000000 2e000000  $.+.............
 10c2f0 b0001000 00000000 44002c00 00000000  ........D.,.....
 10c300 00000000 44002e00 06000000 00000000  ....D...........
 10c310 44002f00 0a000000 00000000 44003200  D./.........D.2.
 10c320 18000000 00000000 44003500 23000000  ........D.5.#...
 10c330 00000000 44003600 2c000000 00000000  ....D.6.,.......
 10c340 44003500 4d000000 00000000 44003500  D.5.M.......D.5.
 10c350 51000000 00000000 44003a00 5a000000  Q.......D.:.Z...
 10c360 00000000 44003b00 63000000 00000000  ....D.;.c.......
 10c370 44003a00 76000000 00000000 44003a00  D.:.v.......D.:.
 10c380 7a000000 00000000 44003f00 83000000  z.......D.?.....
 10c390 00000000 44004100 8a000000 01050000  ....D.A.........
 10c3a0 80002e00 fbffffff 16050000 80002f00  ............../.
 10c3b0 f8ffffff 00000000 c0000000 00000000  ................
 10c3c0 22050000 80003400 fcffffff 00000000  ".....4.........
 10c3d0 c0000000 23000000 00000000 e0000000  ....#...........
 10c3e0 8a000000 00000000 e0000000 8c000000  ................
 10c3f0 00000000 24000000 8c000000 00000000  ....$...........
 10c400 4e000000 3c011000 2a050000 24004400  N...<...*...$.D.
 10c410 3c011000 00000000 2e000000 3c011000  <...........<...
 10c420 00000000 44004500 00000000 00000000  ....D.E.........
 10c430 44004600 06000000 00000000 44004700  D.F.........D.G.
 10c440 0a000000 00000000 44004a00 18000000  ........D.J.....
 10c450 00000000 44004b00 21000000 00000000  ....D.K.!.......
 10c460 44004a00 34000000 00000000 44004a00  D.J.4.......D.J.
 10c470 38000000 00000000 44004e00 41000000  8.......D.N.A...
 10c480 00000000 44004f00 48000000 00000000  ....D.O.H.......
 10c490 44005000 4f000000 00000000 44005100  D.P.O.......D.Q.
 10c4a0 54000000 01050000 80004600 f3ffffff  T.........F.....
 10c4b0 16050000 80004700 f0ffffff 22050000  ......G....."...
 10c4c0 80004900 f4ffffff 00000000 c0000000  ..I.............
 10c4d0 00000000 00000000 e0000000 56000000  ............V...
 10c4e0 00000000 24000000 56000000 00000000  ....$...V.......
 10c4f0 4e000000 92011000 40050000 24005400  N.......@...$.T.
 10c500 92011000 5b050000 a0005400 08000000  ....[.....T.....
 10c510 64050000 a0005400 0c000000 70050000  d.....T.....p...
 10c520 a0005400 10000000 00000000 2e000000  ..T.............
 10c530 92011000 00000000 44005500 00000000  ........D.U.....
 10c540 00000000 44005600 0c000000 00000000  ....D.V.........
 10c550 44005700 12000000 00000000 44005900  D.W.........D.Y.
 10c560 18000000 00000000 44005a00 2b000000  ........D.Z.+...
 10c570 00000000 44005e00 36000000 00000000  ....D.^.6.......
 10c580 44005e00 3c000000 00000000 44005f00  D.^.<.......D._.
 10c590 47000000 00000000 44006000 5b000000  G.......D.`.[...
 10c5a0 00000000 44006100 61000000 00000000  ....D.a.a.......
 10c5b0 44006200 75000000 00000000 44006300  D.b.u.......D.c.
 10c5c0 7b000000 00000000 44006400 84000000  {.......D.d.....
 10c5d0 00000000 44006500 8a000000 00000000  ....D.e.........
 10c5e0 44006600 91000000 00000000 44006700  D.f.........D.g.
 10c5f0 a2000000 00000000 44006800 a8000000  ........D.h.....
 10c600 00000000 44006900 e3000000 00000000  ....D.i.........
 10c610 44006d00 f2000000 00000000 44006e00  D.m.........D.n.
 10c620 fd000000 00000000 44006f00 04010000  ........D.o.....
 10c630 00000000 44007300 13010000 00000000  ....D.s.........
 10c640 44007600 18010000 00000000 44007700  D.v.........D.w.
 10c650 1d010000 7c050000 80005600 f7ffffff  ....|.....V.....
 10c660 8d050000 80005700 f6ffffff 01050000  ......W.........
 10c670 80005900 f5ffffff 9e050000 80005a00  ..Y...........Z.
 10c680 f2ffffff ae050000 80005400 e4ffffff  ..........T.....
 10c690 00000000 c0000000 00000000 00000000  ................
 10c6a0 e0000000 1f010000 00000000 24000000  ............$...
 10c6b0 1f010000 00000000 4e000000 b1021000  ........N.......
 10c6c0 b6050000 24007a00 b1021000 cc050000  ....$.z.........
 10c6d0 a0007a00 08000000 00000000 2e000000  ..z.............
 10c6e0 b1021000 00000000 44007b00 00000000  ........D.{.....
 10c6f0 00000000 44007c00 06000000 00000000  ....D.|.........
 10c700 44007d00 08000000 00000000 44007c00  D.}.........D.|.
 10c710 2d000000 00000000 44007f00 37000000  -.......D...7...
 10c720 00000000 24000000 39000000 00000000  ....$...9.......
 10c730 4e000000 ea021000 e0050000 24008200  N...........$...
 10c740 ea021000 fc050000 a0008200 08000000  ................
 10c750 64050000 a0008200 0c000000 70050000  d...........p...
 10c760 a0008200 10000000 00000000 2e000000  ................
 10c770 ea021000 00000000 44008300 00000000  ........D.......
 10c780 00000000 44008400 06000000 00000000  ....D...........
 10c790 44008500 08000000 00000000 44008400  D...........D...
 10c7a0 2b000000 00000000 44008700 35000000  +.......D...5...
 10c7b0 00000000 24000000 37000000 00000000  ....$...7.......
 10c7c0 4e000000 21031000 09060000 24008a00  N...!.......$...
 10c7d0 21031000 23060000 a0008a00 08000000  !...#...........
 10c7e0 64050000 a0008a00 0c000000 70050000  d...........p...
 10c7f0 a0008a00 10000000 00000000 2e000000  ................
 10c800 21031000 00000000 44008b00 00000000  !.......D.......
 10c810 00000000 44008d00 07000000 00000000  ....D...........
 10c820 44008f00 0b000000 00000000 44009200  D...........D...
 10c830 25000000 00000000 44009300 2e000000  %.......D.......
 10c840 00000000 44009400 42000000 00000000  ....D...B.......
 10c850 44009400 48000000 00000000 44009700  D...H.......D...
 10c860 4e000000 00000000 44009800 52000000  N.......D...R...
 10c870 00000000 44009900 58000000 00000000  ....D...X.......
 10c880 44009b00 79000000 00000000 44009500  D...y.......D...
 10c890 9a000000 00000000 44009200 9b000000  ........D.......
 10c8a0 00000000 44009200 9f000000 00000000  ....D...........
 10c8b0 44009e00 a5000000 2c060000 80008c00  D.......,.......
 10c8c0 ecffffff 36060000 80008d00 f7ffffff  ....6...........
 10c8d0 22050000 80009100 f0ffffff 00000000  "...............
 10c8e0 c0000000 00000000 00000000 e0000000  ................
 10c8f0 ab000000 00000000 24000000 ab000000  ........$.......
 10c900 00000000 4e000000 cc031000 45060000  ....N.......E...
 10c910 2400a100 cc031000 23060000 a000a100  $.......#.......
 10c920 08000000 64050000 a000a100 0c000000  ....d...........
 10c930 70050000 a000a100 10000000 00000000  p...............
 10c940 2e000000 cc031000 00000000 4400a200  ............D...
 10c950 00000000 00000000 4400a300 06000000  ........D.......
 10c960 00000000 4400a400 0c000000 00000000  ....D...........
 10c970 4400a500 26000000 00000000 4400a800  D...&.......D...
 10c980 2b000000 00000000 4400aa00 31000000  +.......D...1...
 10c990 00000000 4400ab00 38000000 00000000  ....D...8.......
 10c9a0 4400ac00 3a000000 00000000 4400ad00  D...:.......D...
 10c9b0 65000000 00000000 4400ae00 7d000000  e.......D...}...
 10c9c0 00000000 4400ab00 81000000 00000000  ....D...........
 10c9d0 4400b000 87000000 00000000 4400b300  D...........D...
 10c9e0 90000000 00000000 4400b500 9d000000  ........D.......
 10c9f0 00000000 4400b600 a4000000 00000000  ....D...........
 10ca00 4400b700 a6000000 00000000 4400b600  D...........D...
 10ca10 bf000000 00000000 4400ba00 c5000000  ........D.......
 10ca20 00000000 4400bb00 de000000 5f060000  ....D......._...
 10ca30 8000a800 f4ffffff 69060000 8000a900  ........i.......
 10ca40 ccffffff 22050000 8000aa00 f0ffffff  ...."...........
 10ca50 9e060000 8000b200 acffffff a8060000  ................
 10ca60 8000b500 ecffffff 00000000 c0000000  ................
 10ca70 00000000 00000000 e0000000 e0000000  ................
 10ca80 00000000 24000000 e0000000 00000000  ....$...........
 10ca90 4e000000 ac041000 b0060000 26001300  N...........&...
 10caa0 00201000 cc060000 26001600 04b01000  . ......&.......
 10cab0 dc060000 26001700 05b01000 00000000  ....&...........
 10cac0 64000000 ac041000 0d000000 64000200  d...........d...
 10cad0 ac041000 ec060000 64000200 ac041000  ........d.......
 10cae0 30000000 3c000000 00000000 3f000000  0...<.......?...
 10caf0 80000000 00000000 69000000 80000000  ........i.......
 10cb00 00000000 83000000 80000000 00000000  ................
 10cb10 b2000000 80000000 00000000 dd000000  ................
 10cb20 80000000 00000000 0d010000 80000000  ................
 10cb30 00000000 5e010000 80000000 00000000  ....^...........
 10cb40 a3010000 80000000 00000000 ce010000  ................
 10cb50 80000000 00000000 fd010000 80000000  ................
 10cb60 00000000 27020000 80000000 00000000  ....'...........
 10cb70 50020000 80000000 00000000 6a020000  P...........j...
 10cb80 80000000 00000000 85020000 80000000  ................
 10cb90 00000000 a6020000 80000000 00000000  ................
 10cba0 c5020000 80000000 00000000 e4020000  ................
 10cbb0 80000000 00000000 05030000 80000000  ................
 10cbc0 00000000 fd060000 82000000 00000000  ................
 10cbd0 2b030000 c2000000 181e0000 00000000  +...............
 10cbe0 a2000000 00000000 0e070000 24000c00  ............$...
 10cbf0 ac041000 1b070000 a0000c00 08000000  ................
 10cc00 27070000 a0000c00 0c000000 00000000  '...............
 10cc10 2e000000 ac041000 00000000 44000d00  ............D...
 10cc20 00000000 00000000 44000e00 13000000  ........D.......
 10cc30 00000000 44000f00 1c000000 34070000  ....D.......4...
 10cc40 80000c00 fcffffff 3f070000 80000c00  ........?.......
 10cc50 f8ffffff 00000000 24000000 1e000000  ........$.......
 10cc60 00000000 4e000000 ca041000 4b070000  ....N.......K...
 10cc70 24001300 ca041000 1b070000 a0001300  $...............
 10cc80 08000000 00000000 2e000000 ca041000  ................
 10cc90 00000000 44001400 00000000 00000000  ....D...........
 10cca0 44001600 0e000000 00000000 44001700  D...........D...
 10ccb0 20000000 00000000 44001800 24000000   .......D...$...
 10ccc0 56070000 80001500 fbffffff 34070000  V...........4...
 10ccd0 80001300 e8ffffff 00000000 c0000000  ................
 10cce0 00000000 00000000 e0000000 2a000000  ............*...
 10ccf0 00000000 24000000 2a000000 00000000  ....$...*.......
 10cd00 4e000000 f4041000 60070000 24001b00  N.......`...$...
 10cd10 f4041000 1b070000 a0001b00 08000000  ................
 10cd20 00000000 2e000000 f4041000 00000000  ................
 10cd30 44001c00 00000000 00000000 44001e00  D...........D...
 10cd40 0e000000 00000000 44001f00 22000000  ........D..."...
 10cd50 00000000 44002000 26000000 6b070000  ....D. .&...k...
 10cd60 80001d00 faffffff 34070000 80001b00  ........4.......
 10cd70 e8ffffff 00000000 c0000000 00000000  ................
 10cd80 00000000 e0000000 2c000000 00000000  ........,.......
 10cd90 24000000 2c000000 00000000 4e000000  $...,.......N...
 10cda0 20051000 00000000 64000000 20051000   .......d... ...
 10cdb0 0d000000 64000200 20051000 75070000  ....d... ...u...
 10cdc0 64000200 20051000 30000000 3c000000  d... ...0...<...
 10cdd0 00000000 3f000000 80000000 00000000  ....?...........
 10cde0 69000000 80000000 00000000 83000000  i...............
 10cdf0 80000000 00000000 b2000000 80000000  ................
 10ce00 00000000 dd000000 80000000 00000000  ................
 10ce10 0d010000 80000000 00000000 5e010000  ............^...
 10ce20 80000000 00000000 a3010000 80000000  ................
 10ce30 00000000 ce010000 80000000 00000000  ................
 10ce40 fd010000 80000000 00000000 27020000  ............'...
 10ce50 80000000 00000000 50020000 80000000  ........P.......
 10ce60 00000000 6a020000 80000000 00000000  ....j...........
 10ce70 85020000 80000000 00000000 a6020000  ................
 10ce80 80000000 00000000 c5020000 80000000  ................
 10ce90 00000000 e4020000 80000000 00000000  ................
 10cea0 05030000 80000000 00000000 86070000  ................
 10ceb0 82000000 00000000 2b030000 c2000000  ........+.......
 10cec0 181e0000 00000000 a2000000 00000000  ................
 10ced0 97070000 24000a00 20051000 a6070000  ....$... .......
 10cee0 a0000a00 08000000 ba070000 a0000a00  ................
 10cef0 0c000000 c6070000 a0000a00 10000000  ................
 10cf00 00000000 2e000000 20051000 00000000  ........ .......
 10cf10 44000b00 00000000 00000000 44000c00  D...........D...
 10cf20 03000000 00000000 44000e00 05000000  ........D.......
 10cf30 00000000 44000f00 18000000 00000000  ....D...........
 10cf40 44000c00 1c000000 00000000 44001100  D...........D...
 10cf50 22000000 00000000 24000000 24000000  ".......$...$...
 10cf60 00000000 4e000000 44051000 d1070000  ....N...D.......
 10cf70 24001300 44051000 e0070000 a0001300  $...D...........
 10cf80 08000000 f5070000 a0001300 0c000000  ................
 10cf90 c6070000 a0001300 10000000 00000000  ................
 10cfa0 2e000000 44051000 00000000 44001400  ....D.......D...
 10cfb0 00000000 00000000 44001600 0c000000  ........D.......
 10cfc0 00000000 44001700 12000000 00000000  ....D...........
 10cfd0 44001900 1b000000 00000000 44001700  D...........D...
 10cfe0 27000000 00000000 44001700 2b000000  '.......D...+...
 10cff0 00000000 44001b00 33000000 22050000  ....D...3..."...
 10d000 80001500 fcffffff 00080000 80001600  ................
 10d010 f8ffffff 0b080000 80001300 ecffffff  ................
 10d020 00000000 c0000000 00000000 00000000  ................
 10d030 e0000000 35000000 00000000 24000000  ....5.......$...
 10d040 35000000 00000000 4e000000 79051000  5.......N...y...
 10d050 15080000 24001d00 79051000 23080000  ....$...y...#...
 10d060 a0001d00 08000000 c6070000 a0001d00  ................
 10d070 0c000000 00000000 2e000000 79051000  ............y...
 10d080 00000000 44001e00 00000000 00000000  ....D...........
 10d090 44001f00 06000000 00000000 44002000  D...........D. .
 10d0a0 20000000 00000000 24000000 22000000   .......$..."...
 10d0b0 00000000 4e000000 9b051000 30080000  ....N.......0...
 10d0c0 24002200 9b051000 3e080000 a0002200  $.".....>.....".
 10d0d0 08000000 5a080000 a0002200 0c000000  ....Z.....".....
 10d0e0 00000000 2e000000 9b051000 00000000  ................
 10d0f0 44002300 00000000 00000000 44002400  D.#.........D.$.
 10d100 06000000 00000000 44002500 0c000000  ........D.%.....
 10d110 00000000 44002700 12000000 00000000  ....D.'.........
 10d120 44002900 14000000 00000000 44002a00  D.).........D.*.
 10d130 18000000 00000000 44002700 1c000000  ........D.'.....
 10d140 00000000 44002700 26000000 00000000  ....D.'.&.......
 10d150 44002c00 30000000 00000000 44002d00  D.,.0.......D.-.
 10d160 4b000000 00000000 44002e00 4e000000  K.......D...N...
 10d170 67080000 80002400 fcffffff 78080000  g.....$.....x...
 10d180 80002500 f8ffffff 82080000 80002600  ..%...........&.
 10d190 f4ffffff 00000000 c0000000 00000000  ................
 10d1a0 00000000 e0000000 50000000 00000000  ........P.......
 10d1b0 24000000 50000000 00000000 4e000000  $...P.......N...
 10d1c0 eb051000 8c080000 24003000 eb051000  ........$.0.....
 10d1d0 9b080000 a0003000 08000000 a8080000  ......0.........
 10d1e0 a0003000 0c000000 00000000 2e000000  ..0.............
 10d1f0 eb051000 00000000 44003100 00000000  ........D.1.....
 10d200 00000000 44003200 06000000 00000000  ....D.2.........
 10d210 44003300 0c000000 00000000 44003400  D.3.........D.4.
 10d220 12000000 00000000 44003600 14000000  ........D.6.....
 10d230 00000000 44003400 18000000 00000000  ....D.4.........
 10d240 44003800 22000000 00000000 44003a00  D.8.".......D.:.
 10d250 24000000 00000000 44003800 37000000  $.......D.8.7...
 10d260 00000000 44003c00 41000000 00000000  ....D.<.A.......
 10d270 44003d00 47000000 00000000 44003e00  D.=.G.......D.>.
 10d280 4a000000 b4080000 80003200 fcffffff  J.........2.....
 10d290 c0080000 80003300 f8ffffff 00000000  ......3.........
 10d2a0 c0000000 00000000 00000000 e0000000  ................
 10d2b0 4c000000 00000000 24000000 4c000000  L.......$...L...
 10d2c0 00000000 4e000000 37061000 cc080000  ....N...7.......
 10d2d0 24003f00 37061000 a8080000 a0003f00  $.?.7.........?.
 10d2e0 08000000 00000000 2e000000 37061000  ............7...
 10d2f0 00000000 44004000 00000000 00000000  ....D.@.........
 10d300 44004100 06000000 00000000 44004200  D.A.........D.B.
 10d310 0d000000 00000000 44004300 13000000  ........D.C.....
 10d320 00000000 44004500 15000000 00000000  ....D.E.........
 10d330 44004300 19000000 00000000 44004700  D.C.........D.G.
 10d340 2c000000 00000000 44004800 2f000000  ,.......D.H./...
 10d350 da080000 80004100 fcffffff e6080000  ......A.........
 10d360 80004200 f8ffffff 00000000 c0000000  ..B.............
 10d370 00000000 00000000 e0000000 31000000  ............1...
 10d380 00000000 24000000 31000000 00000000  ....$...1.......
 10d390 4e000000 68061000 00000000 64000000  N...h.......d...
 10d3a0 68061000 0d000000 64000200 68061000  h.......d...h...
 10d3b0 f2080000 64000200 68061000 30000000  ....d...h...0...
 10d3c0 3c000000 00000000 3f000000 80000000  <.......?.......
 10d3d0 00000000 69000000 80000000 00000000  ....i...........
 10d3e0 83000000 80000000 00000000 b2000000  ................
 10d3f0 80000000 00000000 dd000000 80000000  ................
 10d400 00000000 0d010000 80000000 00000000  ................
 10d410 5e010000 80000000 00000000 a3010000  ^...............
 10d420 80000000 00000000 ce010000 80000000  ................
 10d430 00000000 fd010000 80000000 00000000  ................
 10d440 27020000 80000000 00000000 50020000  '...........P...
 10d450 80000000 00000000 6a020000 80000000  ........j.......
 10d460 00000000 85020000 80000000 00000000  ................
 10d470 a6020000 80000000 00000000 c5020000  ................
 10d480 80000000 00000000 e4020000 80000000  ................
 10d490 00000000 05030000 80000000 00000000  ................
 10d4a0 fd060000 c2000000 00000000 2b030000  ............+...
 10d4b0 c2000000 181e0000 00090000 82000000  ................
 10d4c0 a78b0000 0e090000 82000000 02e20000  ................
 10d4d0 22090000 80000000 00000000 7b0b0000  "...........{...
 10d4e0 80003c00 00000000 940b0000 80000000  ..<.............
 10d4f0 00000000 340c0000 80004c00 00000000  ....4.....L.....
 10d500 00000000 a2000000 00000000 4e0c0000  ............N...
 10d510 80000000 00000000 290d0000 80001600  ........).......
 10d520 00000000 4b0d0000 80000000 00000000  ....K...........
 10d530 cc0d0000 80002100 00000000 e60d0000  ......!.........
 10d540 80000000 00000000 5c0e0000 80002a00  ........\.....*.
 10d550 00000000 00000000 a2000000 00000000  ................
 10d560 6f0e0000 24000600 68061000 890e0000  o...$...h.......
 10d570 a0000600 0c000000 00000000 2e000000  ................
 10d580 68061000 00000000 44000700 00000000  h.......D.......
 10d590 00000000 44000a00 06000000 00000000  ....D...........
 10d5a0 44000c00 0f000000 00000000 44000d00  D...........D...
 10d5b0 28000000 00000000 44000e00 34000000  (.......D...4...
 10d5c0 00000000 44001000 4c000000 00000000  ....D...L.......
 10d5d0 44001100 63000000 00000000 44001200  D...c.......D...
 10d5e0 79000000 00000000 44001400 8f000000  y.......D.......
 10d5f0 00000000 44001500 a6000000 00000000  ....D...........
 10d600 44001600 bc000000 00000000 44000d00  D...........D...
 10d610 d2000000 00000000 44000d00 d6000000  ........D.......
 10d620 00000000 44001a00 e7000000 00000000  ....D...........
 10d630 44001b00 01010000 22050000 80000800  D.......".......
 10d640 f4ffffff 9b0e0000 80000900 d8ffffff  ................
 10d650 a50e0000 80000a00 f0ffffff b60e0000  ................
 10d660 80000c00 ecffffff 00000000 c0000000  ................
 10d670 00000000 c50e0000 80000e00 e8ffffff  ................
 10d680 00000000 c0000000 34000000 00000000  ........4.......
 10d690 e0000000 d2000000 00000000 e0000000  ................
 10d6a0 08010000 00000000 24000000 08010000  ........$.......
 10d6b0 00000000 4e000000 70071000 d00e0000  ....N...p.......
 10d6c0 24001e00 70071000 e90e0000 a0001e00  $...p...........
 10d6d0 08000000 f50e0000 a0001e00 0c000000  ................
 10d6e0 00000000 2e000000 70071000 00000000  ........p.......
 10d6f0 44001f00 00000000 00000000 44002200  D...........D.".
 10d700 06000000 00000000 44002300 0f000000  ........D.#.....
 10d710 00000000 44002700 2b000000 00000000  ....D.'.+.......
 10d720 44002700 40000000 00000000 44002800  D.'.@.......D.(.
 10d730 67000000 00000000 44002400 82000000  g.......D.$.....
 10d740 00000000 44002200 83000000 00000000  ....D.".........
 10d750 44002200 87000000 00000000 44002c00  D.".........D.,.
 10d760 9b000000 00000000 44002d00 a0000000  ........D.-.....
 10d770 22050000 80002000 fcffffff 00000000  "..... .........
 10d780 c0000000 00000000 00000000 e0000000  ................
 10d790 a2000000 00000000 24000000 a2000000  ........$.......
 10d7a0 00000000 4e000000 12081000 00000000  ....N...........
 10d7b0 64000000 12081000 0d000000 64000200  d...........d...
 10d7c0 14081000 080f0000 64000200 14081000  ........d.......
 10d7d0 30000000 3c000000 00000000 3f000000  0...<.......?...
 10d7e0 80000000 00000000 69000000 80000000  ........i.......
 10d7f0 00000000 83000000 80000000 00000000  ................
 10d800 b2000000 80000000 00000000 dd000000  ................
 10d810 80000000 00000000 0d010000 80000000  ................
 10d820 00000000 5e010000 80000000 00000000  ....^...........
 10d830 a3010000 80000000 00000000 ce010000  ................
 10d840 80000000 00000000 fd010000 80000000  ................
 10d850 00000000 27020000 80000000 00000000  ....'...........
 10d860 50020000 80000000 00000000 6a020000  P...........j...
 10d870 80000000 00000000 85020000 80000000  ................
 10d880 00000000 a6020000 80000000 00000000  ................
 10d890 c5020000 80000000 00000000 e4020000  ................
 10d8a0 80000000 00000000 05030000 80000000  ................
 10d8b0 00000000 180f0000 82000000 00000000  ................
 10d8c0 19030000 c2000000 905d0000 2b030000  .........]..+...
 10d8d0 c2000000 181e0000 280f0000 82000000  ........(.......
 10d8e0 50060000 380f0000 80000b00 00000000  P...8...........
 10d8f0 00000000 a2000000 00000000 00090000  ................
 10d900 c2000000 a78b0000 0e090000 c2000000  ................
 10d910 02e20000 00000000 a2000000 00000000  ................
 10d920 540f0000 24000f00 14081000 00000000  T...$...........
 10d930 2e000000 14081000 00000000 44001000  ............D...
 10d940 00000000 00000000 44001200 06000000  ........D.......
 10d950 00000000 44001300 3e000000 00000000  ....D...>.......
 10d960 24000000 40000000 00000000 4e000000  $...@.......N...
 10d970 54081000 670f0000 24001500 54081000  T...g...$...T...
 10d980 00000000 2e000000 54081000 00000000  ........T.......
 10d990 44001600 00000000 00000000 44001a00  D...........D...
 10d9a0 06000000 00000000 44002100 12000000  ........D.!.....
 10d9b0 00000000 44002200 37000000 00000000  ....D.".7.......
 10d9c0 44002300 57000000 00000000 44002400  D.#.W.......D.$.
 10d9d0 77000000 00000000 44002500 97000000  w.......D.%.....
 10d9e0 00000000 44002600 b7000000 00000000  ....D.&.........
 10d9f0 44002700 c4000000 800f0000 26001700  D.'.........&...
 10da00 18b01000 8d0f0000 80001800 f6ffffff  ................
 10da10 980f0000 80001800 f4ffffff a30f0000  ................
 10da20 80001800 f2ffffff ae0f0000 80001800  ................
 10da30 f0ffffff 00000000 c0000000 00000000  ................
 10da40 00000000 e0000000 c6000000 00000000  ................
 10da50 24000000 c6000000 00000000 4e000000  $...........N...
 10da60 1a091000 b90f0000 24002900 1a091000  ........$.).....
 10da70 c70f0000 a0002900 08000000 00000000  ......).........
 10da80 2e000000 1a091000 00000000 44002a00  ............D.*.
 10da90 00000000 00000000 44002b00 06000000  ........D.+.....
 10daa0 00000000 44002c00 19000000 00000000  ....D.,.........
 10dab0 44002d00 1e000000 00000000 44003000  D.-.........D.0.
 10dac0 2a000000 00000000 24000000 2c000000  *.......$...,...
 10dad0 00000000 4e000000 46091000 d20f0000  ....N...F.......
 10dae0 24003300 46091000 00000000 2e000000  $.3.F...........
 10daf0 46091000 00000000 44003400 00000000  F.......D.4.....
 10db00 00000000 44003700 07000000 00000000  ....D.7.........
 10db10 44003800 0c000000 00000000 44003900  D.8.........D.9.
 10db20 0e000000 00000000 44003a00 17000000  ........D.:.....
 10db30 00000000 44003b00 45000000 00000000  ....D.;.E.......
 10db40 44003800 4d000000 00000000 44003d00  D.8.M.......D.=.
 10db50 53000000 ec0f0000 80003500 f4ffffff  S.........5.....
 10db60 fe0f0000 80003500 f0ffffff 00000000  ......5.........
 10db70 c0000000 00000000 00000000 e0000000  ................
 10db80 59000000 00000000 24000000 59000000  Y.......$...Y...
 10db90 00000000 4e000000 9f091000 09100000  ....N...........
 10dba0 28000d00 08b01000 00000000 64000000  (...........d...
 10dbb0 9f091000 0d000000 64000200 a0091000  ........d.......
 10dbc0 1b100000 64000200 a0091000 30000000  ....d.......0...
 10dbd0 3c000000 00000000 3f000000 80000000  <.......?.......
 10dbe0 00000000 69000000 80000000 00000000  ....i...........
 10dbf0 83000000 80000000 00000000 b2000000  ................
 10dc00 80000000 00000000 dd000000 80000000  ................
 10dc10 00000000 0d010000 80000000 00000000  ................
 10dc20 5e010000 80000000 00000000 a3010000  ^...............
 10dc30 80000000 00000000 ce010000 80000000  ................
 10dc40 00000000 fd010000 80000000 00000000  ................
 10dc50 27020000 80000000 00000000 50020000  '...........P...
 10dc60 80000000 00000000 6a020000 80000000  ........j.......
 10dc70 00000000 85020000 80000000 00000000  ................
 10dc80 a6020000 80000000 00000000 c5020000  ................
 10dc90 80000000 00000000 e4020000 80000000  ................
 10dca0 00000000 05030000 80000000 00000000  ................
 10dcb0 19030000 c2000000 905d0000 2b030000  .........]..+...
 10dcc0 c2000000 181e0000 280f0000 c2000000  ........(.......
 10dcd0 50060000 180f0000 c2000000 00000000  P...............
 10dce0 00090000 c2000000 a78b0000 0e090000  ................
 10dcf0 c2000000 02e20000 2c100000 24000f00  ........,...$...
 10dd00 a0091000 3b100000 a0000f00 08000000  ....;...........
 10dd10 00000000 2e000000 a0091000 00000000  ................
 10dd20 44001000 00000000 00000000 44001600  D...........D...
 10dd30 06000000 00000000 44001700 0e000000  ........D.......
 10dd40 00000000 44001a00 2b000000 00000000  ....D...+.......
 10dd50 44001c00 36000000 00000000 44001d00  D...6.......D...
 10dd60 42000000 49100000 28001200 20b41000  B...I...(... ...
 10dd70 84100000 80001300 f0ffffff 22050000  ............"...
 10dd80 80001400 f4ffffff 00000000 c0000000  ................
 10dd90 00000000 00000000 e0000000 44000000  ............D...
 10dda0 00000000 24000000 44000000 00000000  ....$...D.......
 10ddb0 4e000000 e4091000 8f100000 24001f00  N...........$...
 10ddc0 e4091000 64050000 a0001f00 08000000  ....d...........
 10ddd0 70050000 a0001f00 0c000000 3b100000  p...........;...
 10dde0 a0001f00 10000000 00000000 2e000000  ................
 10ddf0 e4091000 00000000 44002000 00000000  ........D. .....
 10de00 00000000 44002600 06000000 00000000  ....D.&.........
 10de10 44002700 0e000000 00000000 44002a00  D.'.........D.*.
 10de20 2b000000 00000000 44002c00 36000000  +.......D.,.6...
 10de30 00000000 44002d00 50000000 a4100000  ....D.-.P.......
 10de40 28002200 20b01000 84100000 80002300  (.". .........#.
 10de50 f0ffffff 22050000 80002400 f4ffffff  ....".....$.....
 10de60 00000000 c0000000 00000000 00000000  ................
 10de70 e0000000 52000000 00000000 24000000  ....R.......$...
 10de80 52000000 00000000 4e000000 360a1000  R.......N...6...
 10de90 b1100000 24003100 360a1000 c2100000  ....$.1.6.......
 10dea0 a0003100 08000000 00000000 2e000000  ..1.............
 10deb0 360a1000 00000000 44003200 00000000  6.......D.2.....
 10dec0 00000000 44003300 06000000 00000000  ....D.3.........
 10ded0 44003500 0d000000 00000000 44003600  D.5.........D.6.
 10dee0 0f000000 00000000 44003500 38000000  ........D.5.8...
 10def0 00000000 44003500 44000000 00000000  ....D.5.D.......
 10df00 44003900 50000000 00000000 44003a00  D.9.P.......D.:.
 10df10 53000000 22050000 80003300 fcffffff  S...".....3.....
 10df20 00000000 c0000000 00000000 00000000  ................
 10df30 e0000000 55000000 00000000 24000000  ....U.......$...
 10df40 55000000 00000000 4e000000 8b0a1000  U.......N.......
 10df50 d3100000 24004900 8b0a1000 e9100000  ....$.I.........
 10df60 a0004900 08000000 f5100000 a0004900  ..I...........I.
 10df70 0c000000 00110000 a0004900 10000000  ..........I.....
 10df80 0c110000 a0004900 14000000 18110000  ......I.........
 10df90 a0004900 18000000 29110000 a0004900  ..I.....).....I.
 10dfa0 1c000000 00000000 2e000000 8b0a1000  ................
 10dfb0 00000000 44004a00 00000000 00000000  ....D.J.........
 10dfc0 44004c00 07000000 00000000 44004f00  D.L.........D.O.
 10dfd0 0e000000 00000000 44005000 18000000  ........D.P.....
 10dfe0 00000000 44005200 1f000000 00000000  ....D.R.........
 10dff0 44005300 29000000 00000000 44005500  D.S.).......D.U.
 10e000 2d000000 00000000 44005500 33000000  -.......D.U.3...
 10e010 00000000 44005600 39000000 00000000  ....D.V.9.......
 10e020 44005900 43000000 00000000 44005900  D.Y.C.......D.Y.
 10e030 4d000000 00000000 44005900 54000000  M.......D.Y.T...
 10e040 00000000 44005900 59000000 00000000  ....D.Y.Y.......
 10e050 44005b00 5c000000 00000000 44005b00  D.[.\.......D.[.
 10e060 66000000 00000000 44005c00 6c000000  f.......D.\.l...
 10e070 00000000 44005d00 70000000 00000000  ....D.].p.......
 10e080 44005f00 75000000 00000000 44005f00  D._.u.......D._.
 10e090 7f000000 00000000 44005f00 89000000  ........D._.....
 10e0a0 00000000 44005f00 90000000 00000000  ....D._.........
 10e0b0 44005f00 97000000 00000000 44005f00  D._.........D._.
 10e0c0 9c000000 00000000 44006200 9f000000  ........D.b.....
 10e0d0 00000000 44006300 a5000000 00000000  ....D.c.........
 10e0e0 44006500 a9000000 00000000 44006600  D.e.........D.f.
 10e0f0 b3000000 00000000 44006700 b9000000  ........D.g.....
 10e100 00000000 44006800 bf000000 00000000  ....D.h.........
 10e110 44006900 c5000000 00000000 44006c00  D.i.........D.l.
 10e120 c9000000 00000000 44006d00 d0000000  ........D.m.....
 10e130 00000000 44006e00 d6000000 00000000  ....D.n.........
 10e140 44007100 e5000000 00000000 44007000  D.q.........D.p.
 10e150 13010000 00000000 44007500 19010000  ........D.u.....
 10e160 00000000 44007600 21010000 00000000  ....D.v.!.......
 10e170 44007800 27010000 00000000 44007a00  D.x.'.......D.z.
 10e180 2d010000 00000000 44007b00 37010000  -.......D.{.7...
 10e190 00000000 44007c00 39010000 00000000  ....D.|.9.......
 10e1a0 44007b00 43010000 00000000 44007f00  D.{.C.......D...
 10e1b0 52010000 00000000 44008000 58010000  R.......D...X...
 10e1c0 00000000 44008200 65010000 00000000  ....D...e.......
 10e1d0 44008300 6f010000 00000000 44008400  D...o.......D...
 10e1e0 75010000 00000000 44008500 81010000  u.......D.......
 10e1f0 00000000 44008600 87010000 00000000  ....D...........
 10e200 44008700 91010000 00000000 44008a00  D...........D...
 10e210 a1010000 00000000 44008b00 ab010000  ........D.......
 10e220 00000000 44008c00 ad010000 00000000  ....D...........
 10e230 44008b00 ba010000 00000000 44008f00  D...........D...
 10e240 c9010000 00000000 44009000 cb010000  ........D.......
 10e250 00000000 44008f00 d7010000 00000000  ....D...........
 10e260 44008f00 d8010000 00000000 44009200  D...........D...
 10e270 e9010000 00000000 44009300 eb010000  ........D.......
 10e280 00000000 44009200 fd010000 00000000  ....D...........
 10e290 44009500 0c020000 00000000 44009600  D...........D...
 10e2a0 0e020000 00000000 44009500 18020000  ........D.......
 10e2b0 00000000 44009900 27020000 00000000  ....D...'.......
 10e2c0 44009a00 2a020000 ae050000 80004b00  D...*.........K.
 10e2d0 efffffff 35110000 80004b00 fbffffff  ....5.....K.....
 10e2e0 40110000 80004b00 c4ffffff 5f110000  @.....K....._...
 10e2f0 80004c00 f4ffffff 22050000 80004d00  ..L.....".....M.
 10e300 f0ffffff 00000000 c0000000 00000000  ................
 10e310 6c110000 80007100 e8ffffff 00000000  l.....q.........
 10e320 c0000000 e5000000 00000000 e0000000  ................
 10e330 01010000 00000000 e0000000 30020000  ............0...
 10e340 00000000 24000000 30020000 00000000  ....$...0.......
 10e350 4e000000 bb0c1000 78110000 24009c00  N.......x...$...
 10e360 bb0c1000 88110000 a0009c00 08000000  ................
 10e370 3b100000 a0009c00 0c000000 95110000  ;...............
 10e380 a0009c00 10000000 00000000 2e000000  ................
 10e390 bb0c1000 00000000 44009d00 00000000  ........D.......
 10e3a0 00000000 4400a900 06000000 00000000  ....D...........
 10e3b0 4400aa00 11000000 00000000 4400ab00  D...........D...
 10e3c0 1b000000 00000000 4400ac00 2a000000  ........D...*...
 10e3d0 00000000 4400af00 2f000000 00000000  ....D.../.......
 10e3e0 4400b100 36000000 00000000 4400b200  D...6.......D...
 10e3f0 3f000000 00000000 4400b300 59000000  ?.......D...Y...
 10e400 00000000 4400b400 5d000000 00000000  ....D...].......
 10e410 4400b500 5f000000 00000000 4400b600  D..._.......D...
 10e420 63000000 00000000 4400b700 65000000  c.......D...e...
 10e430 00000000 4400b800 69000000 00000000  ....D...i.......
 10e440 4400b900 6b000000 00000000 4400ba00  D...k.......D...
 10e450 6f000000 00000000 4400bb00 71000000  o.......D...q...
 10e460 00000000 4400bc00 75000000 00000000  ....D...u.......
 10e470 4400c000 77000000 00000000 4400c100  D...w.......D...
 10e480 7e000000 00000000 4400c100 88000000  ~.......D.......
 10e490 00000000 4400c200 92000000 00000000  ....D...........
 10e4a0 4400c300 a2000000 00000000 4400c500  D...........D...
 10e4b0 ac000000 00000000 4400c600 ba000000  ........D.......
 10e4c0 00000000 4400c700 c0000000 00000000  ....D...........
 10e4d0 4400c800 c3000000 00000000 4400cd00  D...........D...
 10e4e0 c7000000 00000000 4400ce00 ce000000  ........D.......
 10e4f0 00000000 4400cf00 d8000000 00000000  ....D...........
 10e500 4400d000 e1000000 00000000 4400d000  D...........D...
 10e510 eb000000 00000000 4400d100 f5000000  ........D.......
 10e520 00000000 4400d200 05010000 00000000  ....D...........
 10e530 4400d400 0f010000 00000000 4400d600  D...........D...
 10e540 1d010000 00000000 4400d700 23010000  ........D...#...
 10e550 00000000 4400dd00 2a010000 00000000  ....D...*.......
 10e560 4400dd00 34010000 00000000 4400df00  D...4.......D...
 10e570 48010000 00000000 4400e200 51010000  H.......D...Q...
 10e580 00000000 4400e400 6f010000 00000000  ....D...o.......
 10e590 4400e500 79010000 00000000 4400e600  D...y.......D...
 10e5a0 7b010000 00000000 4400e500 85010000  {.......D.......
 10e5b0 00000000 4400e900 8f010000 00000000  ....D...........
 10e5c0 4400ea00 a5010000 00000000 4400eb00  D...........D...
 10e5d0 a7010000 00000000 4400ea00 b1010000  ........D.......
 10e5e0 00000000 4400ed00 bb010000 00000000  ....D...........
 10e5f0 4400f000 c0010000 00000000 4400f100  D...........D...
 10e600 ce010000 00000000 4400f200 dc010000  ........D.......
 10e610 00000000 4400f300 e2010000 00000000  ....D...........
 10e620 4400f400 ea010000 00000000 4400f500  D...........D...
 10e630 f2010000 00000000 4400f800 f8010000  ........D.......
 10e640 00000000 4400f900 02020000 00000000  ....D...........
 10e650 4400fa00 04020000 00000000 4400f900  D...........D...
 10e660 0e020000 00000000 4400fd00 1f020000  ........D.......
 10e670 00000000 4400fe00 28020000 00000000  ....D...(.......
 10e680 4400fd00 3b020000 00000000 4400fd00  D...;.......D...
 10e690 3f020000 00000000 44000001 47020000  ?.......D...G...
 10e6a0 00000000 44000101 49020000 00000000  ....D...I.......
 10e6b0 44000001 53020000 00000000 44000301  D...S.......D...
 10e6c0 64020000 00000000 44000601 69020000  d.......D...i...
 10e6d0 00000000 44000801 a3020000 00000000  ....D...........
 10e6e0 44000b01 a8020000 00000000 44000c01  D...........D...
 10e6f0 ae020000 00000000 44000d01 b5020000  ........D.......
 10e700 00000000 44000f01 b9020000 00000000  ....D...........
 10e710 44001101 f3020000 00000000 44001401  D...........D...
 10e720 f8020000 00000000 44001601 fc020000  ........D.......
 10e730 00000000 44001801 36030000 00000000  ....D...6.......
 10e740 44001c01 3b030000 00000000 44001e01  D...;.......D...
 10e750 3f030000 00000000 44002001 79030000  ?.......D. .y...
 10e760 00000000 44002201 7e030000 00000000  ....D.".~.......
 10e770 44002401 b8030000 00000000 44002701  D.$.........D.'.
 10e780 ba030000 00000000 44002801 c8030000  ........D.(.....
 10e790 00000000 44002901 d5030000 00000000  ....D.).........
 10e7a0 44002c01 d7030000 00000000 44002d01  D.,.........D.-.
 10e7b0 e1030000 00000000 44002e01 eb030000  ........D.......
 10e7c0 00000000 44002f01 f5030000 00000000  ....D./.........
 10e7d0 44003301 04040000 00000000 44003101  D.3.........D.1.
 10e7e0 06040000 00000000 44003301 0f040000  ........D.3.....
 10e7f0 00000000 4400a900 10040000 00000000  ....D...........
 10e800 4400a900 19040000 00000000 44003601  D...........D.6.
 10e810 27040000 00000000 44003801 2d040000  '.......D.8.-...
 10e820 00000000 44003901 39040000 a1110000  ....D.9.9.......
 10e830 80009e00 f4ffffff 22050000 80009f00  ........".......
 10e840 f0ffffff ab110000 8000a000 ecffffff  ................
 10e850 b6110000 8000a100 e8ffffff bf110000  ................
 10e860 8000a200 d8ffffff d0110000 8000a400  ................
 10e870 e4ffffff dc110000 8000a600 e0ffffff  ................
 10e880 ee110000 8000a700 dcffffff 00000000  ................
 10e890 c0000000 00000000 00000000 e0000000  ................
 10e8a0 3b040000 00000000 24000000 3b040000  ;.......$...;...
 10e8b0 00000000 4e000000 f6101000 00000000  ....N...........
 10e8c0 64000000 f6101000 0d000000 64000200  d...........d...
 10e8d0 f8101000 fe110000 64000200 f8101000  ........d.......
 10e8e0 30000000 3c000000 00000000 3f000000  0...<.......?...
 10e8f0 80000000 00000000 69000000 80000000  ........i.......
 10e900 00000000 83000000 80000000 00000000  ................
 10e910 b2000000 80000000 00000000 dd000000  ................
 10e920 80000000 00000000 0d010000 80000000  ................
 10e930 00000000 5e010000 80000000 00000000  ....^...........
 10e940 a3010000 80000000 00000000 ce010000  ................
 10e950 80000000 00000000 fd010000 80000000  ................
 10e960 00000000 27020000 80000000 00000000  ....'...........
 10e970 50020000 80000000 00000000 6a020000  P...........j...
 10e980 80000000 00000000 85020000 80000000  ................
 10e990 00000000 a6020000 80000000 00000000  ................
 10e9a0 c5020000 80000000 00000000 e4020000  ................
 10e9b0 80000000 00000000 05030000 80000000  ................
 10e9c0 00000000 19030000 c2000000 905d0000  .............]..
 10e9d0 2b030000 c2000000 181e0000 180f0000  +...............
 10e9e0 c2000000 00000000 280f0000 c2000000  ........(.......
 10e9f0 50060000 00090000 c2000000 a78b0000  P...............
 10ea00 0e090000 c2000000 02e20000 0b120000  ................
 10ea10 24000b00 f8101000 00000000 2e000000  $...............
 10ea20 f8101000 00000000 44000c00 00000000  ........D.......
 10ea30 00000000 44000d00 06000000 00000000  ....D...........
 10ea40 44000e00 0b000000 00000000 44000f00  D...........D...
 10ea50 10000000 00000000 44001000 1c000000  ........D.......
 10ea60 00000000 44001100 38000000 00000000  ....D...8.......
 10ea70 44001200 44000000 00000000 44001300  D...D.......D...
 10ea80 49000000 00000000 24000000 4b000000  I.......$...K...
 10ea90 00000000 4e000000 43111000 00000000  ....N...C.......
 10eaa0 64000000 43111000 00000000 00000000  d...C...........
 10eab0 00000000 00000000 00000000 00000000  ................
 10eac0 00000000 00000000 00000000 00000000  ................
 10ead0 00000000 00000000 00000000 00000000  ................
 10eae0 00000000 00000000 00000000 00000000  ................
 10eaf0 00000000 00000000 00000000 00000000  ................
 10eb00 00000000 00000000 00000000 00000000  ................
 10eb10 00000000 00000000 00000000 00000000  ................
 10eb20 00000000 00000000 00000000 00000000  ................
 10eb30 00000000 00000000 00000000 00000000  ................
 10eb40 00000000 00000000 00000000 00000000  ................
 10eb50 00000000 00000000 00000000 00000000  ................
 10eb60 00000000 00000000 00000000 00000000  ................
 10eb70 00000000 00000000 00000000 00000000  ................
 10eb80 00000000 00000000 00000000 00000000  ................
 10eb90 00000000 00000000 00000000 00000000  ................
 10eba0 00000000 00000000 00000000 00000000  ................
 10ebb0 00000000 00000000 00000000 00000000  ................
 10ebc0 00000000 00000000 00000000 00000000  ................
 10ebd0 00000000 00000000 00000000 00000000  ................
 10ebe0 00000000 00000000 00000000 00000000  ................
 10ebf0 00000000 00000000 00000000 00000000  ................
 10ec00 00000000 00000000 00000000 00000000  ................
 10ec10 00000000 00000000 00000000 00000000  ................
 10ec20 00000000 00000000 00000000 00000000  ................
 10ec30 00000000 00000000 00000000 00000000  ................
 10ec40 00000000 00000000 00000000 00000000  ................
 10ec50 00000000 00000000 00000000 00000000  ................
 10ec60 00000000 00000000 00000000 00000000  ................
 10ec70 00000000 00000000 00000000 00000000  ................
 10ec80 00000000 00000000 00000000 00000000  ................
 10ec90 00000000 00000000 00000000 00000000  ................
 10eca0 00000000 00000000 00000000 00000000  ................
 10ecb0 00000000 00000000 00000000 00000000  ................
 10ecc0 00000000 00000000 00000000 00000000  ................
 10ecd0 00000000 00000000 00000000 00000000  ................
 10ece0 00000000 00000000 00000000 00000000  ................
 10ecf0 00000000 00000000 00000000 00000000  ................
 10ed00 00000000 00000000 00000000 00000000  ................
 10ed10 00000000 00000000 00000000 00000000  ................
 10ed20 00000000 00000000 00000000 00000000  ................
 10ed30 00000000 00000000 00000000 00000000  ................
 10ed40 00000000 00000000 00000000 00000000  ................
 10ed50 00000000 00000000 00000000 00000000  ................
 10ed60 00000000 00000000 00000000 00000000  ................
 10ed70 00000000 00000000 00000000 00000000  ................
 10ed80 00000000 00000000 00000000 00000000  ................
 10ed90 00000000 00000000 00000000 00000000  ................
 10eda0 00000000 00000000 00000000 00000000  ................
 10edb0 00000000 00000000 00000000 00000000  ................
 10edc0 00000000 00000000 00000000 00000000  ................
 10edd0 00000000 00000000 00000000 00000000  ................
 10ede0 00000000 00000000 00000000 00000000  ................
 10edf0 00000000 00000000 00000000 00000000  ................
 10ee00 00000000 00000000 00000000 00000000  ................
 10ee10 00000000 00000000 00000000 00000000  ................
 10ee20 00000000 00000000 00000000 00000000  ................
 10ee30 00000000 00000000 00000000 00000000  ................
 10ee40 00000000 00000000 00000000 00000000  ................
 10ee50 00000000 00000000 00000000 00000000  ................
 10ee60 00000000 00000000 00000000 00000000  ................
 10ee70 00000000 00000000 00000000 00000000  ................
 10ee80 00000000 00000000 00000000 00000000  ................
 10ee90 00000000 00000000 00000000 00000000  ................
 10eea0 00000000 00000000 00000000 00000000  ................
 10eeb0 00000000 00000000 00000000 00000000  ................
 10eec0 00000000 00000000 00000000 00000000  ................
 10eed0 00000000 00000000 00000000 00000000  ................
 10eee0 00000000 00000000 00000000 00000000  ................
 10eef0 00000000 00000000 00000000 00000000  ................
 10ef00 00000000 00000000 00000000 00000000  ................
 10ef10 00000000 00000000 00000000 00000000  ................
 10ef20 00000000 00000000 00000000 00000000  ................
 10ef30 00000000 00000000 00000000 00000000  ................
 10ef40 00000000 00000000 00000000 00000000  ................
 10ef50 00000000 00000000 00000000 00000000  ................
 10ef60 00000000 00000000 00000000 00000000  ................
 10ef70 00000000 00000000 00000000 00000000  ................
 10ef80 00000000 00000000 00000000 00000000  ................
 10ef90 00000000 00000000 00000000 00000000  ................
 10efa0 00000000 00000000 00000000 00000000  ................
 10efb0 00000000 00000000 00000000 00000000  ................
 10efc0 00000000 00000000 00000000 00000000  ................
 10efd0 00000000 00000000 00000000 00000000  ................
 10efe0 00000000 00000000 00000000 00000000  ................
 10eff0 00000000 00000000 00000000 00000000  ................
Contents of section .stabstr:
 10f000 00626f6f 742f626f 6f742e73 002f686f  .boot/boot.s./ho
 10f010 6d652f6d 6f726169 6e2f4f53 2f00696e  me/morain/OS/.in
 10f020 636c7564 652f636f 6e736f6c 652e6300  clude/console.c.
 10f030 67636332 5f636f6d 70696c65 642e0069  gcc2_compiled..i
 10f040 6e743a74 28302c31 293d7228 302c3129  nt:t(0,1)=r(0,1)
 10f050 3b2d3231 34373438 33363438 3b323134  ;-2147483648;214
 10f060 37343833 3634373b 00636861 723a7428  7483647;.char:t(
 10f070 302c3229 3d722830 2c32293b 303b3132  0,2)=r(0,2);0;12
 10f080 373b006c 6f6e6720 696e743a 7428302c  7;.long int:t(0,
 10f090 33293d72 28302c33 293b2d32 31343734  3)=r(0,3);-21474
 10f0a0 38333634 383b3231 34373438 33363437  83648;2147483647
 10f0b0 3b00756e 7369676e 65642069 6e743a74  ;.unsigned int:t
 10f0c0 28302c34 293d7228 302c3429 3b303b30  (0,4)=r(0,4);0;0
 10f0d0 33373737 37373737 3737373b 006c6f6e  37777777777;.lon
 10f0e0 6720756e 7369676e 65642069 6e743a74  g unsigned int:t
 10f0f0 28302c35 293d7228 302c3529 3b303b30  (0,5)=r(0,5);0;0
 10f100 33373737 37373737 3737373b 006c6f6e  37777777777;.lon
 10f110 67206c6f 6e672069 6e743a74 28302c36  g long int:t(0,6
 10f120 293d4073 36343b72 28302c36 293b3031  )=@s64;r(0,6);01
 10f130 30303030 30303030 30303030 30303030  0000000000000000
 10f140 30303030 303b3037 37373737 37373737  00000;0777777777
 10f150 37373737 37373737 37373737 3b006c6f  777777777777;.lo
 10f160 6e67206c 6f6e6720 756e7369 676e6564  ng long unsigned
 10f170 20696e74 3a742830 2c37293d 40733634   int:t(0,7)=@s64
 10f180 3b722830 2c37293b 303b3031 37373737  ;r(0,7);0;017777
 10f190 37373737 37373737 37373737 37373737  7777777777777777
 10f1a0 373b0073 686f7274 20696e74 3a742830  7;.short int:t(0
 10f1b0 2c38293d 40733136 3b722830 2c38293b  ,8)=@s16;r(0,8);
 10f1c0 2d333237 36383b33 32373637 3b007368  -32768;32767;.sh
 10f1d0 6f727420 756e7369 676e6564 20696e74  ort unsigned int
 10f1e0 3a742830 2c39293d 40733136 3b722830  :t(0,9)=@s16;r(0
 10f1f0 2c39293b 303b3635 3533353b 00736967  ,9);0;65535;.sig
 10f200 6e656420 63686172 3a742830 2c313029  ned char:t(0,10)
 10f210 3d407338 3b722830 2c313029 3b2d3132  =@s8;r(0,10);-12
 10f220 383b3132 373b0075 6e736967 6e656420  8;127;.unsigned 
 10f230 63686172 3a742830 2c313129 3d407338  char:t(0,11)=@s8
 10f240 3b722830 2c313129 3b303b32 35353b00  ;r(0,11);0;255;.
 10f250 666c6f61 743a7428 302c3132 293d7228  float:t(0,12)=r(
 10f260 302c3129 3b343b30 3b00646f 75626c65  0,1);4;0;.double
 10f270 3a742830 2c313329 3d722830 2c31293b  :t(0,13)=r(0,1);
 10f280 383b303b 006c6f6e 6720646f 75626c65  8;0;.long double
 10f290 3a742830 2c313429 3d722830 2c31293b  :t(0,14)=r(0,1);
 10f2a0 31323b30 3b005f44 6563696d 616c3332  12;0;._Decimal32
 10f2b0 3a742830 2c313529 3d722830 2c31293b  :t(0,15)=r(0,1);
 10f2c0 343b303b 005f4465 63696d61 6c36343a  4;0;._Decimal64:
 10f2d0 7428302c 3136293d 7228302c 31293b38  t(0,16)=r(0,1);8
 10f2e0 3b303b00 5f446563 696d616c 3132383a  ;0;._Decimal128:
 10f2f0 7428302c 3137293d 7228302c 31293b31  t(0,17)=r(0,1);1
 10f300 363b303b 00766f69 643a7428 302c3138  6;0;.void:t(0,18
 10f310 293d2830 2c313829 00696e63 6c756465  )=(0,18).include
 10f320 2f636f6e 736f6c65 2e680069 6e636c75  /console.h.inclu
 10f330 64652f74 79706573 2e680075 696e7433  de/types.h.uint3
 10f340 325f743a 7428322c 31293d28 302c3429  2_t:t(2,1)=(0,4)
 10f350 00696e74 33325f74 3a742832 2c32293d  .int32_t:t(2,2)=
 10f360 28302c31 29007569 6e743136 5f743a74  (0,1).uint16_t:t
 10f370 28322c33 293d2830 2c392900 696e7431  (2,3)=(0,9).int1
 10f380 365f743a 7428322c 34293d28 302c3829  6_t:t(2,4)=(0,8)
 10f390 0075696e 74385f74 3a742832 2c35293d  .uint8_t:t(2,5)=
 10f3a0 28302c31 31290069 6e74385f 743a7428  (0,11).int8_t:t(
 10f3b0 322c3629 3d28302c 32290072 65616c5f  2,6)=(0,2).real_
 10f3c0 636f6c6f 723a5428 312c3129 3d657263  color:T(1,1)=erc
 10f3d0 5f626c61 636b3a30 2c72635f 626c7565  _black:0,rc_blue
 10f3e0 3a312c72 635f6772 65656e3a 322c7263  :1,rc_green:2,rc
 10f3f0 5f637961 6e3a332c 72635f72 65643a34  _cyan:3,rc_red:4
 10f400 2c72635f 6d616765 6e74613a 352c7263  ,rc_magenta:5,rc
 10f410 5f62726f 776e3a36 2c72635f 6c696768  _brown:6,rc_ligh
 10f420 745f6772 65793a37 2c72635f 6461726b  t_grey:7,rc_dark
 10f430 5f677265 793a382c 72635f6c 69676874  _grey:8,rc_light
 10f440 5f626c75 653a392c 72635f6c 69676874  _blue:9,rc_light
 10f450 5f677265 656e3a31 302c7263 5f6c6967  _green:10,rc_lig
 10f460 68745f63 79616e3a 31312c72 635f6c69  ht_cyan:11,rc_li
 10f470 6768745f 7265643a 31322c72 635f6c69  ght_red:12,rc_li
 10f480 6768745f 6d616765 6e74613a 31332c72  ght_magenta:13,r
 10f490 635f6c69 6768745f 62726f77 6e3a3134  c_light_brown:14
 10f4a0 2c72635f 77686974 653a3135 2c3b0072  ,rc_white:15,;.r
 10f4b0 65616c5f 636f6c6f 725f743a 7428312c  eal_color_t:t(1,
 10f4c0 32293d28 312c3129 006d6f76 655f6375  2)=(1,1).move_cu
 10f4d0 72736f72 3a662830 2c313829 00637572  rsor:f(0,18).cur
 10f4e0 736f724c 6f636174 696f6e3a 28322c33  sorLocation:(2,3
 10f4f0 29007363 726f6c6c 3a662830 2c313829  ).scroll:f(0,18)
 10f500 00617474 72696275 74655f62 7974653a  .attribute_byte:
 10f510 28322c35 2900626c 616e6b3a 28322c33  (2,5).blank:(2,3
 10f520 2900693a 28302c31 2900636f 6e736f6c  ).i:(0,1).consol
 10f530 655f636c 6561723a 4628302c 31382900  e_clear:F(0,18).
 10f540 636f6e73 6f6c655f 70757463 5f636f6c  console_putc_col
 10f550 6f723a46 28302c31 38290063 3a702830  or:F(0,18).c:p(0
 10f560 2c312900 6261636b 3a702831 2c322900  ,1).back:p(1,2).
 10f570 666f7265 3a702831 2c322900 6261636b  fore:p(1,2).back
 10f580 5f636f6c 6f723a28 322c3529 00666f72  _color:(2,5).for
 10f590 655f636f 6c6f723a 28322c35 29006174  e_color:(2,5).at
 10f5a0 74726962 7574653a 28322c33 2900633a  tribute:(2,3).c:
 10f5b0 28302c32 2900636f 6e736f6c 655f7772  (0,2).console_wr
 10f5c0 6974653a 4628302c 31382900 63737472  ite:F(0,18).cstr
 10f5d0 3a702830 2c313929 3d2a2830 2c322900  :p(0,19)=*(0,2).
 10f5e0 636f6e73 6f6c655f 77726974 655f636f  console_write_co
 10f5f0 6c6f723a 4628302c 31382900 63737472  lor:F(0,18).cstr
 10f600 3a702830 2c313929 00636f6e 736f6c65  :p(0,19).console
 10f610 5f777269 74655f68 65783a46 28302c31  _write_hex:F(0,1
 10f620 3829006e 3a702832 2c312900 746d703a  8).n:p(2,1).tmp:
 10f630 28302c31 29006e6f 5a65726f 65733a28  (0,1).noZeroes:(
 10f640 302c3229 00636f6e 736f6c65 5f777269  0,2).console_wri
 10f650 74655f64 65633a46 28302c31 38290061  te_dec:F(0,18).a
 10f660 63633a28 322c3129 00633a28 302c3230  cc:(2,1).c:(0,20
 10f670 293d6172 28302c32 31293d72 28302c32  )=ar(0,21)=r(0,2
 10f680 31293b30 3b303337 37373737 37373737  1);0;03777777777
 10f690 373b3b30 3b33313b 28302c32 29006332  7;;0;31;(0,2).c2
 10f6a0 3a28302c 32302900 6a3a2830 2c312900  :(0,20).j:(0,1).
 10f6b0 76696465 6f5f6d65 6d6f7279 3a532830  video_memory:S(0
 10f6c0 2c323229 3d2a2832 2c332900 63757273  ,22)=*(2,3).curs
 10f6d0 6f725f78 3a532832 2c352900 63757273  or_x:S(2,5).curs
 10f6e0 6f725f79 3a532832 2c352900 696e636c  or_y:S(2,5).incl
 10f6f0 7564652f 636f6d6d 6f6e2e63 00696e63  ude/common.c.inc
 10f700 6c756465 2f636f6d 6d6f6e2e 68006f75  lude/common.h.ou
 10f710 74623a46 28302c31 38290070 6f72743a  tb:F(0,18).port:
 10f720 7028302c 31290076 616c7565 3a702830  p(0,1).value:p(0
 10f730 2c312900 706f7274 3a28322c 33290076  ,1).port:(2,3).v
 10f740 616c7565 3a28322c 35290069 6e623a46  alue:(2,5).inb:F
 10f750 28322c35 29007265 743a2832 2c352900  (2,5).ret:(2,5).
 10f760 696e773a 4628322c 33290072 65743a28  inw:F(2,3).ret:(
 10f770 322c3329 00696e63 6c756465 2f737472  2,3).include/str
 10f780 696e672e 6300696e 636c7564 652f7374  ing.c.include/st
 10f790 72696e67 2e68006d 656d6370 793a4628  ring.h.memcpy:F(
 10f7a0 302c3138 29006465 73743a70 28302c31  0,18).dest:p(0,1
 10f7b0 39293d2a 28322c35 29007372 633a7028  9)=*(2,5).src:p(
 10f7c0 302c3139 29006c65 6e3a7028 322c3129  0,19).len:p(2,1)
 10f7d0 006d656d 7365743a 4628302c 31382900  .memset:F(0,18).
 10f7e0 64657374 3a702830 2c323029 3d2a2830  dest:p(0,20)=*(0
 10f7f0 2c313829 0076616c 3a702830 2c312900  ,18).val:p(0,1).
 10f800 6473743a 28302c31 39290076 616c3a28  dst:(0,19).val:(
 10f810 322c3529 00627a65 726f3a46 28302c31  2,5).bzero:F(0,1
 10f820 38290064 6573743a 7028302c 32302900  8).dest:p(0,20).
 10f830 73747263 6d703a46 28302c31 29007374  strcmp:F(0,1).st
 10f840 72313a70 28302c32 31293d2a 28302c32  r1:p(0,21)=*(0,2
 10f850 32293d6b 28302c32 29007374 72323a70  2)=k(0,2).str2:p
 10f860 28302c32 31290070 313a2830 2c323329  (0,21).p1:(0,23)
 10f870 3d2a2830 2c322900 70323a28 302c3233  =*(0,2).p2:(0,23
 10f880 29007265 743a2830 2c312900 73747263  ).ret:(0,1).strc
 10f890 61743a46 28302c32 33290064 6573743a  at:F(0,23).dest:
 10f8a0 7028302c 32332900 7372633a 7028302c  p(0,23).src:p(0,
 10f8b0 32312900 70646573 3a28302c 32332900  21).pdes:(0,23).
 10f8c0 70737263 3a28302c 32332900 7374726c  psrc:(0,23).strl
 10f8d0 656e3a46 28302c31 2900636f 756e743a  en:F(0,1).count:
 10f8e0 28302c31 29007073 72633a28 302c3231  (0,1).psrc:(0,21
 10f8f0 2900696e 636c7564 652f656c 662e6300  ).include/elf.c.
 10f900 696e636c 7564652f 656c662e 6800696e  include/elf.h.in
 10f910 636c7564 652f6d75 6c746962 6f6f742e  clude/multiboot.
 10f920 68006d75 6c746962 6f6f745f 743a5428  h.multiboot_t:T(
 10f930 342c3129 3d733936 666c6167 733a2832  4,1)=s96flags:(2
 10f940 2c31292c 302c3332 3b6d656d 5f6c6f77  ,1),0,32;mem_low
 10f950 65723a28 322c3129 2c33322c 33323b6d  er:(2,1),32,32;m
 10f960 656d5f75 70706572 3a28322c 31292c36  em_upper:(2,1),6
 10f970 342c3332 3b626f6f 745f6465 76696365  4,32;boot_device
 10f980 3a28322c 31292c39 362c3332 3b636d64  :(2,1),96,32;cmd
 10f990 6c696e65 3a28322c 31292c31 32382c33  line:(2,1),128,3
 10f9a0 323b6d6f 64735f63 6f756e74 3a28322c  2;mods_count:(2,
 10f9b0 31292c31 36302c33 323b6d6f 64735f61  1),160,32;mods_a
 10f9c0 6464723a 28322c31 292c3139 322c3332  ddr:(2,1),192,32
 10f9d0 3b6e756d 3a28322c 31292c32 32342c33  ;num:(2,1),224,3
 10f9e0 323b7369 7a653a28 322c3129 2c323536  2;size:(2,1),256
 10f9f0 2c33323b 61646472 3a28322c 31292c32  ,32;addr:(2,1),2
 10fa00 38382c33 323b7368 6e64783a 28322c31  88,32;shndx:(2,1
 10fa10 292c3332 302c3332 3b6d6d61 705f6164  ),320,32;mmap_ad
 10fa20 64723a28 322c3129 2c333532 2c33323b  dr:(2,1),352,32;
 10fa30 6d6d6170 5f6c656e 6774683a 28322c31  mmap_length:(2,1
 10fa40 292c3338 342c3332 3b647269 7665735f  ),384,32;drives_
 10fa50 6c656e67 74683a28 322c3129 2c343136  length:(2,1),416
 10fa60 2c33323b 64726976 65735f61 6464723a  ,32;drives_addr:
 10fa70 28322c31 292c3434 382c3332 3b636f6e  (2,1),448,32;con
 10fa80 6669675f 7461626c 653a2832 2c31292c  fig_table:(2,1),
 10fa90 3438302c 33323b62 6f6f745f 6c6f6164  480,32;boot_load
 10faa0 65725f74 61626c65 3a28322c 31292c35  er_table:(2,1),5
 10fab0 31322c33 323b6170 6d5f7461 626c653a  12,32;apm_table:
 10fac0 28322c31 292c3534 342c3332 3b766265  (2,1),544,32;vbe
 10fad0 5f636f6e 74726f6c 5f696e66 6f3a2832  _control_info:(2
 10fae0 2c31292c 3537362c 33323b76 62655f6d  ,1),576,32;vbe_m
 10faf0 6f64655f 696e666f 3a28322c 31292c36  ode_info:(2,1),6
 10fb00 30382c33 323b7662 655f6d6f 64653a28  08,32;vbe_mode:(
 10fb10 322c3129 2c363430 2c33323b 7662655f  2,1),640,32;vbe_
 10fb20 696e7465 72666163 655f7365 673a2832  interface_seg:(2
 10fb30 2c31292c 3637322c 33323b76 62655f69  ,1),672,32;vbe_i
 10fb40 6e746572 66616365 5f6f6666 3a28322c  nterface_off:(2,
 10fb50 31292c37 30342c33 323b7662 655f696e  1),704,32;vbe_in
 10fb60 74657266 6163655f 6c656e3a 28322c31  terface_len:(2,1
 10fb70 292c3733 362c3332 3b3b006d 756c7469  ),736,32;;.multi
 10fb80 626f6f74 5f743a74 28342c32 293d2834  boot_t:t(4,2)=(4
 10fb90 2c312900 6d6d6170 5f656e74 72795f74  ,1).mmap_entry_t
 10fba0 3a542834 2c33293d 73323473 697a653a  :T(4,3)=s24size:
 10fbb0 28322c31 292c302c 33323b62 6173655f  (2,1),0,32;base_
 10fbc0 61646472 5f6c6f77 3a28322c 31292c33  addr_low:(2,1),3
 10fbd0 322c3332 3b626173 655f6164 64725f68  2,32;base_addr_h
 10fbe0 6967683a 28322c31 292c3634 2c33323b  igh:(2,1),64,32;
 10fbf0 6c656e67 74685f6c 6f773a28 322c3129  length_low:(2,1)
 10fc00 2c39362c 33323b6c 656e6774 685f6869  ,96,32;length_hi
 10fc10 67683a28 322c3129 2c313238 2c33323b  gh:(2,1),128,32;
 10fc20 74797065 3a28322c 31292c31 36302c33  type:(2,1),160,3
 10fc30 323b3b00 6d6d6170 5f656e74 72795f74  2;;.mmap_entry_t
 10fc40 3a742834 2c34293d 28342c33 2900656c  :t(4,4)=(4,3).el
 10fc50 665f7365 6374696f 6e5f6865 61646572  f_section_header
 10fc60 5f743a54 28332c31 293d7334 306e616d  _t:T(3,1)=s40nam
 10fc70 653a2832 2c31292c 302c3332 3b747970  e:(2,1),0,32;typ
 10fc80 653a2832 2c31292c 33322c33 323b666c  e:(2,1),32,32;fl
 10fc90 6167733a 28322c31 292c3634 2c33323b  ags:(2,1),64,32;
 10fca0 61646472 3a28322c 31292c39 362c3332  addr:(2,1),96,32
 10fcb0 3b6f6666 7365743a 28322c31 292c3132  ;offset:(2,1),12
 10fcc0 382c3332 3b73697a 653a2832 2c31292c  8,32;size:(2,1),
 10fcd0 3136302c 33323b6c 696e6b3a 28322c31  160,32;link:(2,1
 10fce0 292c3139 322c3332 3b696e66 6f3a2832  ),192,32;info:(2
 10fcf0 2c31292c 3232342c 33323b61 64647261  ,1),224,32;addra
 10fd00 6c69676e 3a28322c 31292c32 35362c33  lign:(2,1),256,3
 10fd10 323b656e 7473697a 653a2832 2c31292c  2;entsize:(2,1),
 10fd20 3238382c 33323b3b 00656c66 5f736563  288,32;;.elf_sec
 10fd30 74696f6e 5f686561 6465725f 743a7428  tion_header_t:t(
 10fd40 332c3229 3d28332c 31290065 6c665f73  3,2)=(3,1).elf_s
 10fd50 796d626f 6c5f743a 5428332c 33293d73  ymbol_t:T(3,3)=s
 10fd60 31366e61 6d653a28 322c3129 2c302c33  16name:(2,1),0,3
 10fd70 323b7661 6c75653a 28322c31 292c3332  2;value:(2,1),32
 10fd80 2c33323b 73697a65 3a28322c 31292c36  ,32;size:(2,1),6
 10fd90 342c3332 3b696e66 6f3a2832 2c35292c  4,32;info:(2,5),
 10fda0 39362c38 3b6f7468 65723a28 322c3529  96,8;other:(2,5)
 10fdb0 2c313034 2c383b73 686e6478 3a28322c  ,104,8;shndx:(2,
 10fdc0 33292c31 31322c31 363b3b00 656c665f  3),112,16;;.elf_
 10fdd0 73796d62 6f6c5f74 3a742833 2c34293d  symbol_t:t(3,4)=
 10fde0 28332c33 2900656c 665f743a 5428332c  (3,3).elf_t:T(3,
 10fdf0 35293d73 31367379 6d746162 3a28332c  5)=s16symtab:(3,
 10fe00 36293d2a 28332c34 292c302c 33323b73  6)=*(3,4),0,32;s
 10fe10 796d7461 62737a3a 28322c31 292c3332  ymtabsz:(2,1),32
 10fe20 2c33323b 73747274 61623a28 332c3729  ,32;strtab:(3,7)
 10fe30 3d2a2833 2c38293d 6b28302c 32292c36  =*(3,8)=k(0,2),6
 10fe40 342c3332 3b737472 74616273 7a3a2832  4,32;strtabsz:(2
 10fe50 2c31292c 39362c33 323b3b00 656c665f  ,1),96,32;;.elf_
 10fe60 743a7428 332c3929 3d28332c 35290065  t:t(3,9)=(3,5).e
 10fe70 6c665f66 726f6d5f 6d756c74 69626f6f  lf_from_multiboo
 10fe80 743a4628 332c3929 006d623a 7028302c  t:F(3,9).mb:p(0,
 10fe90 3139293d 2a28342c 32290065 6c663a28  19)=*(4,2).elf:(
 10fea0 332c3929 0073683a 28302c32 30293d2a  3,9).sh:(0,20)=*
 10feb0 28332c32 29007368 73747274 61623a28  (3,2).shstrtab:(
 10fec0 322c3129 006e616d 653a2833 2c372900  2,1).name:(3,7).
 10fed0 656c665f 6c6f6f6b 75705f73 796d626f  elf_lookup_symbo
 10fee0 6c3a4628 332c3729 00616464 723a7028  l:F(3,7).addr:p(
 10fef0 322c3129 00656c66 3a702830 2c323129  2,1).elf:p(0,21)
 10ff00 3d2a2833 2c392900 696e636c 7564652f  =*(3,9).include/
 10ff10 64656275 672e6300 696e636c 7564652f  debug.c.include/
 10ff20 64656275 672e6800 696e636c 7564652f  debug.h.include/
 10ff30 76617267 732e6800 76615f6c 6973743a  vargs.h.va_list:
 10ff40 7428342c 31293d28 342c3229 3d2a2830  t(4,1)=(4,2)=*(0
 10ff50 2c322900 696e6974 5f646562 75673a46  ,2).init_debug:F
 10ff60 28302c31 38290070 72696e74 5f637572  (0,18).print_cur
 10ff70 5f737461 7475733a 4628302c 31382900  _status:F(0,18).
 10ff80 726f756e 643a5628 302c3129 00726567  round:V(0,1).reg
 10ff90 313a2833 2c332900 72656732 3a28332c  1:(3,3).reg2:(3,
 10ffa0 33290072 6567333a 28332c33 29007265  3).reg3:(3,3).re
 10ffb0 67343a28 332c3329 0070616e 69633a46  g4:(3,3).panic:F
 10ffc0 28302c31 3829006d 73673a70 28352c37  (0,18).msg:p(5,7
 10ffd0 29007072 696e745f 73746163 6b5f7472  ).print_stack_tr
 10ffe0 6163653a 6628302c 31382900 6562703a  ace:f(0,18).ebp:
 10fff0 28302c31 39293d2a 28332c31 29006569  (0,19)=*(3,1).ei
 110000 703a2830 2c313929 006b6572 6e656c5f  p:(0,19).kernel_
 110010 656c663a 5328352c 39290069 6e636c75  elf:S(5,9).inclu
 110020 64652f70 72696e74 6b2e6300 7072696e  de/printk.c.prin
 110030 746b3a46 28302c31 38290066 6f726d61  tk:F(0,18).forma
 110040 743a7028 352c3729 00627566 663a5628  t:p(5,7).buff:V(
 110050 302c3139 293d6172 28302c32 30293d72  0,19)=ar(0,20)=r
 110060 28302c32 30293b30 3b303337 37373737  (0,20);0;0377777
 110070 37373737 373b3b30 3b313032 333b2830  77777;;0;1023;(0
 110080 2c322900 61726773 3a28332c 31290070  ,2).args:(3,1).p
 110090 72696e74 6b5f636f 6c6f723a 4628302c  rintk_color:F(0,
 1100a0 31382900 62756666 3a562830 2c313929  18).buff:V(0,19)
 1100b0 00736b69 705f6174 6f693a66 28302c31  .skip_atoi:f(0,1
 1100c0 2900733a 7028302c 3231293d 2a28352c  ).s:p(0,21)=*(5,
 1100d0 3729006e 756d6265 723a6628 302c3232  7).number:f(0,22
 1100e0 293d2a28 302c3229 00737472 3a702830  )=*(0,2).str:p(0
 1100f0 2c323229 006e756d 3a702830 2c312900  ,22).num:p(0,1).
 110100 62617365 3a702830 2c312900 73697a65  base:p(0,1).size
 110110 3a702830 2c312900 70726563 6973696f  :p(0,1).precisio
 110120 6e3a7028 302c3129 00747970 653a7028  n:p(0,1).type:p(
 110130 302c3129 00736967 6e3a2830 2c322900  0,1).sign:(0,2).
 110140 746d703a 28302c32 33293d61 7228302c  tmp:(0,23)=ar(0,
 110150 3230293b 303b3335 3b28302c 32290064  20);0;35;(0,2).d
 110160 69676974 733a2835 2c372900 5f5f7265  igits:(5,7).__re
 110170 733a2830 2c312900 76737072 696e7466  s:(0,1).vsprintf
 110180 3a662830 2c312900 62756666 3a702830  :f(0,1).buff:p(0
 110190 2c323229 00617267 733a7028 332c3129  ,22).args:p(3,1)
 1101a0 006c656e 3a28302c 31290073 74723a28  .len:(0,1).str:(
 1101b0 302c3232 2900733a 28302c32 32290069  0,22).s:(0,22).i
 1101c0 703a2830 2c323429 3d2a2830 2c312900  p:(0,24)=*(0,1).
 1101d0 666c6167 733a2830 2c312900 6669656c  flags:(0,1).fiel
 1101e0 645f7769 6474683a 28302c31 29007072  d_width:(0,1).pr
 1101f0 65636973 696f6e3a 28302c31 2900696e  ecision:(0,1).in
 110200 69742f65 6e747279 2e63006b 65726e5f  it/entry.c.kern_
 110210 656e7472 793a4628 302c3129 00000000  entry:F(0,1)....
 110220 00000000 00000000 00000000 00000000  ................
 110230 00000000 00000000 00000000 00000000  ................
 110240 00000000 00000000 00000000 00000000  ................
 110250 00000000 00000000 00000000 00000000  ................
 110260 00000000 00000000 00000000 00000000  ................
 110270 00000000 00000000 00000000 00000000  ................
 110280 00000000 00000000 00000000 00000000  ................
 110290 00000000 00000000 00000000 00000000  ................
 1102a0 00000000 00000000 00000000 00000000  ................
 1102b0 00000000 00000000 00000000 00000000  ................
 1102c0 00000000 00000000 00000000 00000000  ................
 1102d0 00000000 00000000 00000000 00000000  ................
 1102e0 00000000 00000000 00000000 00000000  ................
 1102f0 00000000 00000000 00000000 00000000  ................
 110300 00000000 00000000 00000000 00000000  ................
 110310 00000000 00000000 00000000 00000000  ................
 110320 00000000 00000000 00000000 00000000  ................
 110330 00000000 00000000 00000000 00000000  ................
 110340 00000000 00000000 00000000 00000000  ................
 110350 00000000 00000000 00000000 00000000  ................
 110360 00000000 00000000 00000000 00000000  ................
 110370 00000000 00000000 00000000 00000000  ................
 110380 00000000 00000000 00000000 00000000  ................
 110390 00000000 00000000 00000000 00000000  ................
 1103a0 00000000 00000000 00000000 00000000  ................
 1103b0 00000000 00000000 00000000 00000000  ................
 1103c0 00000000 00000000 00000000 00000000  ................
 1103d0 00000000 00000000 00000000 00000000  ................
 1103e0 00000000 00000000 00000000 00000000  ................
 1103f0 00000000 00000000 00000000 00000000  ................
 110400 00000000 00000000 00000000 00000000  ................
 110410 00000000 00000000 00000000 00000000  ................
 110420 00000000 00000000 00000000 00000000  ................
 110430 00000000 00000000 00000000 00000000  ................
 110440 00000000 00000000 00000000 00000000  ................
 110450 00000000 00000000 00000000 00000000  ................
 110460 00000000 00000000 00000000 00000000  ................
 110470 00000000 00000000 00000000 00000000  ................
 110480 00000000 00000000 00000000 00000000  ................
 110490 00000000 00000000 00000000 00000000  ................
 1104a0 00000000 00000000 00000000 00000000  ................
 1104b0 00000000 00000000 00000000 00000000  ................
 1104c0 00000000 00000000 00000000 00000000  ................
 1104d0 00000000 00000000 00000000 00000000  ................
 1104e0 00000000 00000000 00000000 00000000  ................
 1104f0 00000000 00000000 00000000 00000000  ................
 110500 00000000 00000000 00000000 00000000  ................
 110510 00000000 00000000 00000000 00000000  ................
 110520 00000000 00000000 00000000 00000000  ................
 110530 00000000 00000000 00000000 00000000  ................
 110540 00000000 00000000 00000000 00000000  ................
 110550 00000000 00000000 00000000 00000000  ................
 110560 00000000 00000000 00000000 00000000  ................
 110570 00000000 00000000 00000000 00000000  ................
 110580 00000000 00000000 00000000 00000000  ................
 110590 00000000 00000000 00000000 00000000  ................
 1105a0 00000000 00000000 00000000 00000000  ................
 1105b0 00000000 00000000 00000000 00000000  ................
 1105c0 00000000 00000000 00000000 00000000  ................
 1105d0 00000000 00000000 00000000 00000000  ................
 1105e0 00000000 00000000 00000000 00000000  ................
 1105f0 00000000 00000000 00000000 00000000  ................
 110600 00000000 00000000 00000000 00000000  ................
 110610 00000000 00000000 00000000 00000000  ................
 110620 00000000 00000000 00000000 00000000  ................
 110630 00000000 00000000 00000000 00000000  ................
 110640 00000000 00000000 00000000 00000000  ................
 110650 00000000 00000000 00000000 00000000  ................
 110660 00000000 00000000 00000000 00000000  ................
 110670 00000000 00000000 00000000 00000000  ................
 110680 00000000 00000000 00000000 00000000  ................
 110690 00000000 00000000 00000000 00000000  ................
 1106a0 00000000 00000000 00000000 00000000  ................
 1106b0 00000000 00000000 00000000 00000000  ................
 1106c0 00000000 00000000 00000000 00000000  ................
 1106d0 00000000 00000000 00000000 00000000  ................
 1106e0 00000000 00000000 00000000 00000000  ................
 1106f0 00000000 00000000 00000000 00000000  ................
 110700 00000000 00000000 00000000 00000000  ................
 110710 00000000 00000000 00000000 00000000  ................
 110720 00000000 00000000 00000000 00000000  ................
 110730 00000000 00000000 00000000 00000000  ................
 110740 00000000 00000000 00000000 00000000  ................
 110750 00000000 00000000 00000000 00000000  ................
 110760 00000000 00000000 00000000 00000000  ................
 110770 00000000 00000000 00000000 00000000  ................
 110780 00000000 00000000 00000000 00000000  ................
 110790 00000000 00000000 00000000 00000000  ................
 1107a0 00000000 00000000 00000000 00000000  ................
 1107b0 00000000 00000000 00000000 00000000  ................
 1107c0 00000000 00000000 00000000 00000000  ................
 1107d0 00000000 00000000 00000000 00000000  ................
 1107e0 00000000 00000000 00000000 00000000  ................
 1107f0 00000000 00000000 00000000 00000000  ................
 110800 00000000 00000000 00000000 00000000  ................
 110810 00000000 00000000 00000000 00000000  ................
 110820 00000000 00000000 00000000 00000000  ................
 110830 00000000 00000000 00000000 00000000  ................
 110840 00000000 00000000 00000000 00000000  ................
 110850 00000000 00000000 00000000 00000000  ................
 110860 00000000 00000000 00000000 00000000  ................
 110870 00000000 00000000 00000000 00000000  ................
 110880 00000000 00000000 00000000 00000000  ................
 110890 00000000 00000000 00000000 00000000  ................
 1108a0 00000000 00000000 00000000 00000000  ................
 1108b0 00000000 00000000 00000000 00000000  ................
 1108c0 00000000 00000000 00000000 00000000  ................
 1108d0 00000000 00000000 00000000 00000000  ................
 1108e0 00000000 00000000 00000000 00000000  ................
 1108f0 00000000 00000000 00000000 00000000  ................
 110900 00000000 00000000 00000000 00000000  ................
 110910 00000000 00000000 00000000 00000000  ................
 110920 00000000 00000000 00000000 00000000  ................
 110930 00000000 00000000 00000000 00000000  ................
 110940 00000000 00000000 00000000 00000000  ................
 110950 00000000 00000000 00000000 00000000  ................
 110960 00000000 00000000 00000000 00000000  ................
 110970 00000000 00000000 00000000 00000000  ................
 110980 00000000 00000000 00000000 00000000  ................
 110990 00000000 00000000 00000000 00000000  ................
 1109a0 00000000 00000000 00000000 00000000  ................
 1109b0 00000000 00000000 00000000 00000000  ................
 1109c0 00000000 00000000 00000000 00000000  ................
 1109d0 00000000 00000000 00000000 00000000  ................
 1109e0 00000000 00000000 00000000 00000000  ................
 1109f0 00000000 00000000 00000000 00000000  ................
 110a00 00000000 00000000 00000000 00000000  ................
 110a10 00000000 00000000 00000000 00000000  ................
 110a20 00000000 00000000 00000000 00000000  ................
 110a30 00000000 00000000 00000000 00000000  ................
 110a40 00000000 00000000 00000000 00000000  ................
 110a50 00000000 00000000 00000000 00000000  ................
 110a60 00000000 00000000 00000000 00000000  ................
 110a70 00000000 00000000 00000000 00000000  ................
 110a80 00000000 00000000 00000000 00000000  ................
 110a90 00000000 00000000 00000000 00000000  ................
 110aa0 00000000 00000000 00000000 00000000  ................
 110ab0 00000000 00000000 00000000 00000000  ................
 110ac0 00000000 00000000 00000000 00000000  ................
 110ad0 00000000 00000000 00000000 00000000  ................
 110ae0 00000000 00000000 00000000 00000000  ................
 110af0 00000000 00000000 00000000 00000000  ................
 110b00 00000000 00000000 00000000 00000000  ................
 110b10 00000000 00000000 00000000 00000000  ................
 110b20 00000000 00000000 00000000 00000000  ................
 110b30 00000000 00000000 00000000 00000000  ................
 110b40 00000000 00000000 00000000 00000000  ................
 110b50 00000000 00000000 00000000 00000000  ................
 110b60 00000000 00000000 00000000 00000000  ................
 110b70 00000000 00000000 00000000 00000000  ................
 110b80 00000000 00000000 00000000 00000000  ................
 110b90 00000000 00000000 00000000 00000000  ................
 110ba0 00000000 00000000 00000000 00000000  ................
 110bb0 00000000 00000000 00000000 00000000  ................
 110bc0 00000000 00000000 00000000 00000000  ................
 110bd0 00000000 00000000 00000000 00000000  ................
 110be0 00000000 00000000 00000000 00000000  ................
 110bf0 00000000 00000000 00000000 00000000  ................
 110c00 00000000 00000000 00000000 00000000  ................
 110c10 00000000 00000000 00000000 00000000  ................
 110c20 00000000 00000000 00000000 00000000  ................
 110c30 00000000 00000000 00000000 00000000  ................
 110c40 00000000 00000000 00000000 00000000  ................
 110c50 00000000 00000000 00000000 00000000  ................
 110c60 00000000 00000000 00000000 00000000  ................
 110c70 00000000 00000000 00000000 00000000  ................
 110c80 00000000 00000000 00000000 00000000  ................
 110c90 00000000 00000000 00000000 00000000  ................
 110ca0 00000000 00000000 00000000 00000000  ................
 110cb0 00000000 00000000 00000000 00000000  ................
 110cc0 00000000 00000000 00000000 00000000  ................
 110cd0 00000000 00000000 00000000 00000000  ................
 110ce0 00000000 00000000 00000000 00000000  ................
 110cf0 00000000 00000000 00000000 00000000  ................
 110d00 00000000 00000000 00000000 00000000  ................
 110d10 00000000 00000000 00000000 00000000  ................
 110d20 00000000 00000000 00000000 00000000  ................
 110d30 00000000 00000000 00000000 00000000  ................
 110d40 00000000 00000000 00000000 00000000  ................
 110d50 00000000 00000000 00000000 00000000  ................
 110d60 00000000 00000000 00000000 00000000  ................
 110d70 00000000 00000000 00000000 00000000  ................
 110d80 00000000 00000000 00000000 00000000  ................
 110d90 00000000 00000000 00000000 00000000  ................
 110da0 00000000 00000000 00000000 00000000  ................
 110db0 00000000 00000000 00000000 00000000  ................
 110dc0 00000000 00000000 00000000 00000000  ................
 110dd0 00000000 00000000 00000000 00000000  ................
 110de0 00000000 00000000 00000000 00000000  ................
 110df0 00000000 00000000 00000000 00000000  ................
 110e00 00000000 00000000 00000000 00000000  ................
 110e10 00000000 00000000 00000000 00000000  ................
 110e20 00000000 00000000 00000000 00000000  ................
 110e30 00000000 00000000 00000000 00000000  ................
 110e40 00000000 00000000 00000000 00000000  ................
 110e50 00000000 00000000 00000000 00000000  ................
 110e60 00000000 00000000 00000000 00000000  ................
 110e70 00000000 00000000 00000000 00000000  ................
 110e80 00000000 00000000 00000000 00000000  ................
 110e90 00000000 00000000 00000000 00000000  ................
 110ea0 00000000 00000000 00000000 00000000  ................
 110eb0 00000000 00000000 00000000 00000000  ................
 110ec0 00000000 00000000 00000000 00000000  ................
 110ed0 00000000 00000000 00000000 00000000  ................
 110ee0 00000000 00000000 00000000 00000000  ................
 110ef0 00000000 00000000 00000000 00000000  ................
 110f00 00000000 00000000 00000000 00000000  ................
 110f10 00000000 00000000 00000000 00000000  ................
 110f20 00000000 00000000 00000000 00000000  ................
 110f30 00000000 00000000 00000000 00000000  ................
 110f40 00000000 00000000 00000000 00000000  ................
 110f50 00000000 00000000 00000000 00000000  ................
 110f60 00000000 00000000 00000000 00000000  ................
 110f70 00000000 00000000 00000000 00000000  ................
 110f80 00000000 00000000 00000000 00000000  ................
 110f90 00000000 00000000 00000000 00000000  ................
 110fa0 00000000 00000000 00000000 00000000  ................
 110fb0 00000000 00000000 00000000 00000000  ................
 110fc0 00000000 00000000 00000000 00000000  ................
 110fd0 00000000 00000000 00000000 00000000  ................
 110fe0 00000000 00000000 00000000 00000000  ................
 110ff0 00000000 00000000 00000000 00000000  ................

Disassembly of section .text:

00100000 <start-0xc>:
  100000:	02 b0 ad 1b 03 00    	add    0x31bad(%eax),%dh
  100006:	00 00                	add    %al,(%eax)
  100008:	fb                   	sti    
  100009:	4f                   	dec    %edi
  10000a:	52                   	push   %edx
  10000b:	e4 fa                	in     $0xfa,%al

0010000c <start>:
  10000c:	fa                   	cli    
  10000d:	bc 03 80 00 00       	mov    $0x8003,%esp
  100012:	bd 00 00 00 00       	mov    $0x0,%ebp
  100017:	83 e4 f0             	and    $0xfffffff0,%esp
  10001a:	89 1d 00 b0 10 00    	mov    %ebx,0x10b000
  100020:	e8 d3 10 00 00       	call   1010f8 <kern_entry>

00100025 <stop>:
  100025:	f4                   	hlt    
  100026:	eb fd                	jmp    100025 <stop>

00100028 <move_cursor>:
  100028:	55                   	push   %ebp
  100029:	89 e5                	mov    %esp,%ebp
  10002b:	83 ec 28             	sub    $0x28,%esp
  10002e:	0f b6 05 05 b0 10 00 	movzbl 0x10b005,%eax
  100035:	0f b6 d0             	movzbl %al,%edx
  100038:	89 d0                	mov    %edx,%eax
  10003a:	c1 e0 02             	shl    $0x2,%eax
  10003d:	01 d0                	add    %edx,%eax
  10003f:	c1 e0 04             	shl    $0x4,%eax
  100042:	89 c2                	mov    %eax,%edx
  100044:	0f b6 05 04 b0 10 00 	movzbl 0x10b004,%eax
  10004b:	0f b6 c0             	movzbl %al,%eax
  10004e:	01 d0                	add    %edx,%eax
  100050:	66 89 45 f6          	mov    %ax,-0xa(%ebp)
  100054:	c7 44 24 04 0e 00 00 	movl   $0xe,0x4(%esp)
  10005b:	00 
  10005c:	c7 04 24 d4 03 00 00 	movl   $0x3d4,(%esp)
  100063:	e8 44 04 00 00       	call   1004ac <outb>
  100068:	0f b7 45 f6          	movzwl -0xa(%ebp),%eax
  10006c:	66 c1 e8 08          	shr    $0x8,%ax
  100070:	0f b6 c0             	movzbl %al,%eax
  100073:	89 44 24 04          	mov    %eax,0x4(%esp)
  100077:	c7 04 24 d5 03 00 00 	movl   $0x3d5,(%esp)
  10007e:	e8 29 04 00 00       	call   1004ac <outb>
  100083:	c7 44 24 04 0f 00 00 	movl   $0xf,0x4(%esp)
  10008a:	00 
  10008b:	c7 04 24 d4 03 00 00 	movl   $0x3d4,(%esp)
  100092:	e8 15 04 00 00       	call   1004ac <outb>
  100097:	0f b7 45 f6          	movzwl -0xa(%ebp),%eax
  10009b:	0f b6 c0             	movzbl %al,%eax
  10009e:	89 44 24 04          	mov    %eax,0x4(%esp)
  1000a2:	c7 04 24 d5 03 00 00 	movl   $0x3d5,(%esp)
  1000a9:	e8 fe 03 00 00       	call   1004ac <outb>
  1000ae:	c9                   	leave  
  1000af:	c3                   	ret    

001000b0 <scroll>:
  1000b0:	55                   	push   %ebp
  1000b1:	89 e5                	mov    %esp,%ebp
  1000b3:	83 ec 10             	sub    $0x10,%esp
  1000b6:	c6 45 fb 0f          	movb   $0xf,-0x5(%ebp)
  1000ba:	0f b6 45 fb          	movzbl -0x5(%ebp),%eax
  1000be:	c1 e0 08             	shl    $0x8,%eax
  1000c1:	83 c8 20             	or     $0x20,%eax
  1000c4:	66 89 45 f8          	mov    %ax,-0x8(%ebp)
  1000c8:	0f b6 05 05 b0 10 00 	movzbl 0x10b005,%eax
  1000cf:	3c 18                	cmp    $0x18,%al
  1000d1:	76 67                	jbe    10013a <scroll+0x8a>
  1000d3:	c7 45 fc 00 00 00 00 	movl   $0x0,-0x4(%ebp)
  1000da:	eb 25                	jmp    100101 <scroll+0x51>
  1000dc:	a1 00 20 10 00       	mov    0x102000,%eax
  1000e1:	8b 55 fc             	mov    -0x4(%ebp),%edx
  1000e4:	01 d2                	add    %edx,%edx
  1000e6:	01 c2                	add    %eax,%edx
  1000e8:	a1 00 20 10 00       	mov    0x102000,%eax
  1000ed:	8b 4d fc             	mov    -0x4(%ebp),%ecx
  1000f0:	83 c1 50             	add    $0x50,%ecx
  1000f3:	01 c9                	add    %ecx,%ecx
  1000f5:	01 c8                	add    %ecx,%eax
  1000f7:	0f b7 00             	movzwl (%eax),%eax
  1000fa:	66 89 02             	mov    %ax,(%edx)
  1000fd:	83 45 fc 01          	addl   $0x1,-0x4(%ebp)
  100101:	81 7d fc 7f 07 00 00 	cmpl   $0x77f,-0x4(%ebp)
  100108:	7e d2                	jle    1000dc <scroll+0x2c>
  10010a:	c7 45 fc 80 07 00 00 	movl   $0x780,-0x4(%ebp)
  100111:	eb 17                	jmp    10012a <scroll+0x7a>
  100113:	a1 00 20 10 00       	mov    0x102000,%eax
  100118:	8b 55 fc             	mov    -0x4(%ebp),%edx
  10011b:	01 d2                	add    %edx,%edx
  10011d:	01 c2                	add    %eax,%edx
  10011f:	0f b7 45 f8          	movzwl -0x8(%ebp),%eax
  100123:	66 89 02             	mov    %ax,(%edx)
  100126:	83 45 fc 01          	addl   $0x1,-0x4(%ebp)
  10012a:	81 7d fc cf 07 00 00 	cmpl   $0x7cf,-0x4(%ebp)
  100131:	7e e0                	jle    100113 <scroll+0x63>
  100133:	c6 05 05 b0 10 00 18 	movb   $0x18,0x10b005
  10013a:	c9                   	leave  
  10013b:	c3                   	ret    

0010013c <console_clear>:
  10013c:	55                   	push   %ebp
  10013d:	89 e5                	mov    %esp,%ebp
  10013f:	83 ec 18             	sub    $0x18,%esp
  100142:	c6 45 f3 0f          	movb   $0xf,-0xd(%ebp)
  100146:	0f b6 45 f3          	movzbl -0xd(%ebp),%eax
  10014a:	c1 e0 08             	shl    $0x8,%eax
  10014d:	83 c8 20             	or     $0x20,%eax
  100150:	66 89 45 f0          	mov    %ax,-0x10(%ebp)
  100154:	c7 45 f4 00 00 00 00 	movl   $0x0,-0xc(%ebp)
  10015b:	eb 17                	jmp    100174 <console_clear+0x38>
  10015d:	a1 00 20 10 00       	mov    0x102000,%eax
  100162:	8b 55 f4             	mov    -0xc(%ebp),%edx
  100165:	01 d2                	add    %edx,%edx
  100167:	01 c2                	add    %eax,%edx
  100169:	0f b7 45 f0          	movzwl -0x10(%ebp),%eax
  10016d:	66 89 02             	mov    %ax,(%edx)
  100170:	83 45 f4 01          	addl   $0x1,-0xc(%ebp)
  100174:	81 7d f4 cf 07 00 00 	cmpl   $0x7cf,-0xc(%ebp)
  10017b:	7e e0                	jle    10015d <console_clear+0x21>
  10017d:	c6 05 04 b0 10 00 00 	movb   $0x0,0x10b004
  100184:	c6 05 05 b0 10 00 00 	movb   $0x0,0x10b005
  10018b:	e8 98 fe ff ff       	call   100028 <move_cursor>
  100190:	c9                   	leave  
  100191:	c3                   	ret    

00100192 <console_putc_color>:
  100192:	55                   	push   %ebp
  100193:	89 e5                	mov    %esp,%ebp
  100195:	83 ec 28             	sub    $0x28,%esp
  100198:	8b 45 08             	mov    0x8(%ebp),%eax
  10019b:	88 45 e4             	mov    %al,-0x1c(%ebp)
  10019e:	8b 45 0c             	mov    0xc(%ebp),%eax
  1001a1:	88 45 f7             	mov    %al,-0x9(%ebp)
  1001a4:	8b 45 10             	mov    0x10(%ebp),%eax
  1001a7:	88 45 f6             	mov    %al,-0xa(%ebp)
  1001aa:	0f b6 45 f7          	movzbl -0x9(%ebp),%eax
  1001ae:	c1 e0 04             	shl    $0x4,%eax
  1001b1:	0f b6 55 f6          	movzbl -0xa(%ebp),%edx
  1001b5:	83 e2 0f             	and    $0xf,%edx
  1001b8:	09 d0                	or     %edx,%eax
  1001ba:	88 45 f5             	mov    %al,-0xb(%ebp)
  1001bd:	0f b6 45 f5          	movzbl -0xb(%ebp),%eax
  1001c1:	c1 e0 08             	shl    $0x8,%eax
  1001c4:	66 89 45 f2          	mov    %ax,-0xe(%ebp)
  1001c8:	80 7d e4 08          	cmpb   $0x8,-0x1c(%ebp)
  1001cc:	75 1f                	jne    1001ed <console_putc_color+0x5b>
  1001ce:	0f b6 05 04 b0 10 00 	movzbl 0x10b004,%eax
  1001d5:	84 c0                	test   %al,%al
  1001d7:	74 14                	je     1001ed <console_putc_color+0x5b>
  1001d9:	0f b6 05 04 b0 10 00 	movzbl 0x10b004,%eax
  1001e0:	83 e8 01             	sub    $0x1,%eax
  1001e3:	a2 04 b0 10 00       	mov    %al,0x10b004
  1001e8:	e9 97 00 00 00       	jmp    100284 <console_putc_color+0xf2>
  1001ed:	80 7d e4 09          	cmpb   $0x9,-0x1c(%ebp)
  1001f1:	75 14                	jne    100207 <console_putc_color+0x75>
  1001f3:	0f b6 05 04 b0 10 00 	movzbl 0x10b004,%eax
  1001fa:	83 c0 08             	add    $0x8,%eax
  1001fd:	83 e0 f8             	and    $0xfffffff8,%eax
  100200:	a2 04 b0 10 00       	mov    %al,0x10b004
  100205:	eb 7d                	jmp    100284 <console_putc_color+0xf2>
  100207:	80 7d e4 0d          	cmpb   $0xd,-0x1c(%ebp)
  10020b:	75 09                	jne    100216 <console_putc_color+0x84>
  10020d:	c6 05 04 b0 10 00 00 	movb   $0x0,0x10b004
  100214:	eb 6e                	jmp    100284 <console_putc_color+0xf2>
  100216:	80 7d e4 0a          	cmpb   $0xa,-0x1c(%ebp)
  10021a:	75 18                	jne    100234 <console_putc_color+0xa2>
  10021c:	c6 05 04 b0 10 00 00 	movb   $0x0,0x10b004
  100223:	0f b6 05 05 b0 10 00 	movzbl 0x10b005,%eax
  10022a:	83 c0 01             	add    $0x1,%eax
  10022d:	a2 05 b0 10 00       	mov    %al,0x10b005
  100232:	eb 50                	jmp    100284 <console_putc_color+0xf2>
  100234:	80 7d e4 1f          	cmpb   $0x1f,-0x1c(%ebp)
  100238:	7e 4a                	jle    100284 <console_putc_color+0xf2>
  10023a:	8b 0d 00 20 10 00    	mov    0x102000,%ecx
  100240:	0f b6 05 05 b0 10 00 	movzbl 0x10b005,%eax
  100247:	0f b6 d0             	movzbl %al,%edx
  10024a:	89 d0                	mov    %edx,%eax
  10024c:	c1 e0 02             	shl    $0x2,%eax
  10024f:	01 d0                	add    %edx,%eax
  100251:	c1 e0 04             	shl    $0x4,%eax
  100254:	89 c2                	mov    %eax,%edx
  100256:	0f b6 05 04 b0 10 00 	movzbl 0x10b004,%eax
  10025d:	0f b6 c0             	movzbl %al,%eax
  100260:	01 d0                	add    %edx,%eax
  100262:	01 c0                	add    %eax,%eax
  100264:	8d 14 01             	lea    (%ecx,%eax,1),%edx
  100267:	66 0f be 4d e4       	movsbw -0x1c(%ebp),%cx
  10026c:	0f b7 45 f2          	movzwl -0xe(%ebp),%eax
  100270:	09 c8                	or     %ecx,%eax
  100272:	66 89 02             	mov    %ax,(%edx)
  100275:	0f b6 05 04 b0 10 00 	movzbl 0x10b004,%eax
  10027c:	83 c0 01             	add    $0x1,%eax
  10027f:	a2 04 b0 10 00       	mov    %al,0x10b004
  100284:	0f b6 05 04 b0 10 00 	movzbl 0x10b004,%eax
  10028b:	3c 4f                	cmp    $0x4f,%al
  10028d:	76 16                	jbe    1002a5 <console_putc_color+0x113>
  10028f:	c6 05 04 b0 10 00 00 	movb   $0x0,0x10b004
  100296:	0f b6 05 05 b0 10 00 	movzbl 0x10b005,%eax
  10029d:	83 c0 01             	add    $0x1,%eax
  1002a0:	a2 05 b0 10 00       	mov    %al,0x10b005
  1002a5:	e8 06 fe ff ff       	call   1000b0 <scroll>
  1002aa:	e8 79 fd ff ff       	call   100028 <move_cursor>
  1002af:	c9                   	leave  
  1002b0:	c3                   	ret    

001002b1 <console_write>:
  1002b1:	55                   	push   %ebp
  1002b2:	89 e5                	mov    %esp,%ebp
  1002b4:	83 ec 18             	sub    $0x18,%esp
  1002b7:	eb 25                	jmp    1002de <console_write+0x2d>
  1002b9:	8b 45 08             	mov    0x8(%ebp),%eax
  1002bc:	0f b6 00             	movzbl (%eax),%eax
  1002bf:	0f be c0             	movsbl %al,%eax
  1002c2:	83 45 08 01          	addl   $0x1,0x8(%ebp)
  1002c6:	c7 44 24 08 0f 00 00 	movl   $0xf,0x8(%esp)
  1002cd:	00 
  1002ce:	c7 44 24 04 00 00 00 	movl   $0x0,0x4(%esp)
  1002d5:	00 
  1002d6:	89 04 24             	mov    %eax,(%esp)
  1002d9:	e8 b4 fe ff ff       	call   100192 <console_putc_color>
  1002de:	8b 45 08             	mov    0x8(%ebp),%eax
  1002e1:	0f b6 00             	movzbl (%eax),%eax
  1002e4:	84 c0                	test   %al,%al
  1002e6:	75 d1                	jne    1002b9 <console_write+0x8>
  1002e8:	c9                   	leave  
  1002e9:	c3                   	ret    

001002ea <console_write_color>:
  1002ea:	55                   	push   %ebp
  1002eb:	89 e5                	mov    %esp,%ebp
  1002ed:	83 ec 18             	sub    $0x18,%esp
  1002f0:	eb 23                	jmp    100315 <console_write_color+0x2b>
  1002f2:	8b 45 08             	mov    0x8(%ebp),%eax
  1002f5:	0f b6 00             	movzbl (%eax),%eax
  1002f8:	0f be c0             	movsbl %al,%eax
  1002fb:	83 45 08 01          	addl   $0x1,0x8(%ebp)
  1002ff:	8b 55 10             	mov    0x10(%ebp),%edx
  100302:	89 54 24 08          	mov    %edx,0x8(%esp)
  100306:	8b 55 0c             	mov    0xc(%ebp),%edx
  100309:	89 54 24 04          	mov    %edx,0x4(%esp)
  10030d:	89 04 24             	mov    %eax,(%esp)
  100310:	e8 7d fe ff ff       	call   100192 <console_putc_color>
  100315:	8b 45 08             	mov    0x8(%ebp),%eax
  100318:	0f b6 00             	movzbl (%eax),%eax
  10031b:	84 c0                	test   %al,%al
  10031d:	75 d3                	jne    1002f2 <console_write_color+0x8>
  10031f:	c9                   	leave  
  100320:	c3                   	ret    

00100321 <console_write_hex>:
  100321:	55                   	push   %ebp
  100322:	89 e5                	mov    %esp,%ebp
  100324:	53                   	push   %ebx
  100325:	83 ec 24             	sub    $0x24,%esp
  100328:	c6 45 f7 01          	movb   $0x1,-0x9(%ebp)
  10032c:	8b 45 10             	mov    0x10(%ebp),%eax
  10032f:	89 44 24 08          	mov    %eax,0x8(%esp)
  100333:	8b 45 0c             	mov    0xc(%ebp),%eax
  100336:	89 44 24 04          	mov    %eax,0x4(%esp)
  10033a:	c7 04 24 04 20 10 00 	movl   $0x102004,(%esp)
  100341:	e8 a4 ff ff ff       	call   1002ea <console_write_color>
  100346:	c7 45 f0 1c 00 00 00 	movl   $0x1c,-0x10(%ebp)
  10034d:	eb 71                	jmp    1003c0 <console_write_hex+0x9f>
  10034f:	8b 45 f0             	mov    -0x10(%ebp),%eax
  100352:	8b 55 08             	mov    0x8(%ebp),%edx
  100355:	89 d3                	mov    %edx,%ebx
  100357:	89 c1                	mov    %eax,%ecx
  100359:	d3 eb                	shr    %cl,%ebx
  10035b:	89 d8                	mov    %ebx,%eax
  10035d:	83 e0 0f             	and    $0xf,%eax
  100360:	89 45 ec             	mov    %eax,-0x14(%ebp)
  100363:	83 7d ec 00          	cmpl   $0x0,-0x14(%ebp)
  100367:	75 06                	jne    10036f <console_write_hex+0x4e>
  100369:	80 7d f7 00          	cmpb   $0x0,-0x9(%ebp)
  10036d:	75 4c                	jne    1003bb <console_write_hex+0x9a>
  10036f:	c6 45 f7 00          	movb   $0x0,-0x9(%ebp)
  100373:	83 7d ec 09          	cmpl   $0x9,-0x14(%ebp)
  100377:	7e 21                	jle    10039a <console_write_hex+0x79>
  100379:	8b 45 ec             	mov    -0x14(%ebp),%eax
  10037c:	83 c0 57             	add    $0x57,%eax
  10037f:	0f be c0             	movsbl %al,%eax
  100382:	8b 55 10             	mov    0x10(%ebp),%edx
  100385:	89 54 24 08          	mov    %edx,0x8(%esp)
  100389:	8b 55 0c             	mov    0xc(%ebp),%edx
  10038c:	89 54 24 04          	mov    %edx,0x4(%esp)
  100390:	89 04 24             	mov    %eax,(%esp)
  100393:	e8 fa fd ff ff       	call   100192 <console_putc_color>
  100398:	eb 22                	jmp    1003bc <console_write_hex+0x9b>
  10039a:	8b 45 ec             	mov    -0x14(%ebp),%eax
  10039d:	83 c0 30             	add    $0x30,%eax
  1003a0:	0f be c0             	movsbl %al,%eax
  1003a3:	8b 55 10             	mov    0x10(%ebp),%edx
  1003a6:	89 54 24 08          	mov    %edx,0x8(%esp)
  1003aa:	8b 55 0c             	mov    0xc(%ebp),%edx
  1003ad:	89 54 24 04          	mov    %edx,0x4(%esp)
  1003b1:	89 04 24             	mov    %eax,(%esp)
  1003b4:	e8 d9 fd ff ff       	call   100192 <console_putc_color>
  1003b9:	eb 01                	jmp    1003bc <console_write_hex+0x9b>
  1003bb:	90                   	nop
  1003bc:	83 6d f0 04          	subl   $0x4,-0x10(%ebp)
  1003c0:	83 7d f0 00          	cmpl   $0x0,-0x10(%ebp)
  1003c4:	79 89                	jns    10034f <console_write_hex+0x2e>
  1003c6:	83 c4 24             	add    $0x24,%esp
  1003c9:	5b                   	pop    %ebx
  1003ca:	5d                   	pop    %ebp
  1003cb:	c3                   	ret    

001003cc <console_write_dec>:
  1003cc:	55                   	push   %ebp
  1003cd:	89 e5                	mov    %esp,%ebp
  1003cf:	83 ec 78             	sub    $0x78,%esp
  1003d2:	83 7d 08 00          	cmpl   $0x0,0x8(%ebp)
  1003d6:	75 1f                	jne    1003f7 <console_write_dec+0x2b>
  1003d8:	8b 45 10             	mov    0x10(%ebp),%eax
  1003db:	89 44 24 08          	mov    %eax,0x8(%esp)
  1003df:	8b 45 0c             	mov    0xc(%ebp),%eax
  1003e2:	89 44 24 04          	mov    %eax,0x4(%esp)
  1003e6:	c7 04 24 30 00 00 00 	movl   $0x30,(%esp)
  1003ed:	e8 a0 fd ff ff       	call   100192 <console_putc_color>
  1003f2:	e9 b3 00 00 00       	jmp    1004aa <console_write_dec+0xde>
  1003f7:	8b 45 08             	mov    0x8(%ebp),%eax
  1003fa:	89 45 f4             	mov    %eax,-0xc(%ebp)
  1003fd:	c7 45 f0 00 00 00 00 	movl   $0x0,-0x10(%ebp)
  100404:	eb 47                	jmp    10044d <console_write_dec+0x81>
  100406:	8b 4d f4             	mov    -0xc(%ebp),%ecx
  100409:	ba cd cc cc cc       	mov    $0xcccccccd,%edx
  10040e:	89 c8                	mov    %ecx,%eax
  100410:	f7 e2                	mul    %edx
  100412:	c1 ea 03             	shr    $0x3,%edx
  100415:	89 d0                	mov    %edx,%eax
  100417:	c1 e0 02             	shl    $0x2,%eax
  10041a:	01 d0                	add    %edx,%eax
  10041c:	01 c0                	add    %eax,%eax
  10041e:	89 ca                	mov    %ecx,%edx
  100420:	29 c2                	sub    %eax,%edx
  100422:	89 d0                	mov    %edx,%eax
  100424:	83 c0 30             	add    $0x30,%eax
  100427:	89 c2                	mov    %eax,%edx
  100429:	8d 45 cc             	lea    -0x34(%ebp),%eax
  10042c:	03 45 f0             	add    -0x10(%ebp),%eax
  10042f:	88 10                	mov    %dl,(%eax)
  100431:	8b 45 f4             	mov    -0xc(%ebp),%eax
  100434:	89 45 a4             	mov    %eax,-0x5c(%ebp)
  100437:	ba cd cc cc cc       	mov    $0xcccccccd,%edx
  10043c:	8b 45 a4             	mov    -0x5c(%ebp),%eax
  10043f:	f7 e2                	mul    %edx
  100441:	89 d0                	mov    %edx,%eax
  100443:	c1 e8 03             	shr    $0x3,%eax
  100446:	89 45 f4             	mov    %eax,-0xc(%ebp)
  100449:	83 45 f0 01          	addl   $0x1,-0x10(%ebp)
  10044d:	83 7d f4 00          	cmpl   $0x0,-0xc(%ebp)
  100451:	75 b3                	jne    100406 <console_write_dec+0x3a>
  100453:	8d 45 cc             	lea    -0x34(%ebp),%eax
  100456:	03 45 f0             	add    -0x10(%ebp),%eax
  100459:	c6 00 00             	movb   $0x0,(%eax)
  10045c:	8d 45 ac             	lea    -0x54(%ebp),%eax
  10045f:	03 45 f0             	add    -0x10(%ebp),%eax
  100462:	c6 00 00             	movb   $0x0,(%eax)
  100465:	83 6d f0 01          	subl   $0x1,-0x10(%ebp)
  100469:	c7 45 ec 00 00 00 00 	movl   $0x0,-0x14(%ebp)
  100470:	eb 19                	jmp    10048b <console_write_dec+0xbf>
  100472:	8d 45 cc             	lea    -0x34(%ebp),%eax
  100475:	03 45 ec             	add    -0x14(%ebp),%eax
  100478:	0f b6 10             	movzbl (%eax),%edx
  10047b:	8d 45 ac             	lea    -0x54(%ebp),%eax
  10047e:	03 45 f0             	add    -0x10(%ebp),%eax
  100481:	88 10                	mov    %dl,(%eax)
  100483:	83 6d f0 01          	subl   $0x1,-0x10(%ebp)
  100487:	83 45 ec 01          	addl   $0x1,-0x14(%ebp)
  10048b:	83 7d f0 00          	cmpl   $0x0,-0x10(%ebp)
  10048f:	79 e1                	jns    100472 <console_write_dec+0xa6>
  100491:	8b 45 10             	mov    0x10(%ebp),%eax
  100494:	89 44 24 08          	mov    %eax,0x8(%esp)
  100498:	8b 45 0c             	mov    0xc(%ebp),%eax
  10049b:	89 44 24 04          	mov    %eax,0x4(%esp)
  10049f:	8d 45 ac             	lea    -0x54(%ebp),%eax
  1004a2:	89 04 24             	mov    %eax,(%esp)
  1004a5:	e8 40 fe ff ff       	call   1002ea <console_write_color>
  1004aa:	c9                   	leave  
  1004ab:	c3                   	ret    

001004ac <outb>:
  1004ac:	55                   	push   %ebp
  1004ad:	89 e5                	mov    %esp,%ebp
  1004af:	83 ec 08             	sub    $0x8,%esp
  1004b2:	8b 55 08             	mov    0x8(%ebp),%edx
  1004b5:	8b 45 0c             	mov    0xc(%ebp),%eax
  1004b8:	66 89 55 fc          	mov    %dx,-0x4(%ebp)
  1004bc:	88 45 f8             	mov    %al,-0x8(%ebp)
  1004bf:	0f b7 55 fc          	movzwl -0x4(%ebp),%edx
  1004c3:	0f b6 45 f8          	movzbl -0x8(%ebp),%eax
  1004c7:	ee                   	out    %al,(%dx)
  1004c8:	c9                   	leave  
  1004c9:	c3                   	ret    

001004ca <inb>:
  1004ca:	55                   	push   %ebp
  1004cb:	89 e5                	mov    %esp,%ebp
  1004cd:	53                   	push   %ebx
  1004ce:	83 ec 14             	sub    $0x14,%esp
  1004d1:	8b 45 08             	mov    0x8(%ebp),%eax
  1004d4:	66 89 45 e8          	mov    %ax,-0x18(%ebp)
  1004d8:	0f b7 55 e8          	movzwl -0x18(%ebp),%edx
  1004dc:	66 89 55 ea          	mov    %dx,-0x16(%ebp)
  1004e0:	0f b7 55 ea          	movzwl -0x16(%ebp),%edx
  1004e4:	ec                   	in     (%dx),%al
  1004e5:	89 c3                	mov    %eax,%ebx
  1004e7:	88 5d fb             	mov    %bl,-0x5(%ebp)
  1004ea:	0f b6 45 fb          	movzbl -0x5(%ebp),%eax
  1004ee:	83 c4 14             	add    $0x14,%esp
  1004f1:	5b                   	pop    %ebx
  1004f2:	5d                   	pop    %ebp
  1004f3:	c3                   	ret    

001004f4 <inw>:
  1004f4:	55                   	push   %ebp
  1004f5:	89 e5                	mov    %esp,%ebp
  1004f7:	53                   	push   %ebx
  1004f8:	83 ec 14             	sub    $0x14,%esp
  1004fb:	8b 45 08             	mov    0x8(%ebp),%eax
  1004fe:	66 89 45 e8          	mov    %ax,-0x18(%ebp)
  100502:	0f b7 55 e8          	movzwl -0x18(%ebp),%edx
  100506:	66 89 55 ea          	mov    %dx,-0x16(%ebp)
  10050a:	0f b7 55 ea          	movzwl -0x16(%ebp),%edx
  10050e:	66 ed                	in     (%dx),%ax
  100510:	89 c3                	mov    %eax,%ebx
  100512:	66 89 5d fa          	mov    %bx,-0x6(%ebp)
  100516:	0f b7 45 fa          	movzwl -0x6(%ebp),%eax
  10051a:	83 c4 14             	add    $0x14,%esp
  10051d:	5b                   	pop    %ebx
  10051e:	5d                   	pop    %ebp
  10051f:	c3                   	ret    

00100520 <memcpy>:
  100520:	55                   	push   %ebp
  100521:	89 e5                	mov    %esp,%ebp
  100523:	eb 17                	jmp    10053c <memcpy+0x1c>
  100525:	8b 45 0c             	mov    0xc(%ebp),%eax
  100528:	0f b6 10             	movzbl (%eax),%edx
  10052b:	8b 45 08             	mov    0x8(%ebp),%eax
  10052e:	88 10                	mov    %dl,(%eax)
  100530:	83 45 08 01          	addl   $0x1,0x8(%ebp)
  100534:	83 45 0c 01          	addl   $0x1,0xc(%ebp)
  100538:	83 6d 10 01          	subl   $0x1,0x10(%ebp)
  10053c:	83 7d 10 00          	cmpl   $0x0,0x10(%ebp)
  100540:	75 e3                	jne    100525 <memcpy+0x5>
  100542:	5d                   	pop    %ebp
  100543:	c3                   	ret    

00100544 <memset>:
  100544:	55                   	push   %ebp
  100545:	89 e5                	mov    %esp,%ebp
  100547:	83 ec 14             	sub    $0x14,%esp
  10054a:	8b 45 0c             	mov    0xc(%ebp),%eax
  10054d:	88 45 ec             	mov    %al,-0x14(%ebp)
  100550:	8b 45 08             	mov    0x8(%ebp),%eax
  100553:	89 45 f8             	mov    %eax,-0x8(%ebp)
  100556:	c7 45 fc 00 00 00 00 	movl   $0x0,-0x4(%ebp)
  10055d:	eb 10                	jmp    10056f <memset+0x2b>
  10055f:	8b 45 fc             	mov    -0x4(%ebp),%eax
  100562:	03 45 f8             	add    -0x8(%ebp),%eax
  100565:	0f b6 55 ec          	movzbl -0x14(%ebp),%edx
  100569:	88 10                	mov    %dl,(%eax)
  10056b:	83 45 fc 01          	addl   $0x1,-0x4(%ebp)
  10056f:	8b 45 fc             	mov    -0x4(%ebp),%eax
  100572:	3b 45 10             	cmp    0x10(%ebp),%eax
  100575:	72 e8                	jb     10055f <memset+0x1b>
  100577:	c9                   	leave  
  100578:	c3                   	ret    

00100579 <bzero>:
  100579:	55                   	push   %ebp
  10057a:	89 e5                	mov    %esp,%ebp
  10057c:	83 ec 0c             	sub    $0xc,%esp
  10057f:	8b 45 0c             	mov    0xc(%ebp),%eax
  100582:	89 44 24 08          	mov    %eax,0x8(%esp)
  100586:	c7 44 24 04 00 00 00 	movl   $0x0,0x4(%esp)
  10058d:	00 
  10058e:	8b 45 08             	mov    0x8(%ebp),%eax
  100591:	89 04 24             	mov    %eax,(%esp)
  100594:	e8 ab ff ff ff       	call   100544 <memset>
  100599:	c9                   	leave  
  10059a:	c3                   	ret    

0010059b <strcmp>:
  10059b:	55                   	push   %ebp
  10059c:	89 e5                	mov    %esp,%ebp
  10059e:	83 ec 10             	sub    $0x10,%esp
  1005a1:	8b 45 08             	mov    0x8(%ebp),%eax
  1005a4:	89 45 fc             	mov    %eax,-0x4(%ebp)
  1005a7:	8b 45 0c             	mov    0xc(%ebp),%eax
  1005aa:	89 45 f8             	mov    %eax,-0x8(%ebp)
  1005ad:	eb 08                	jmp    1005b7 <strcmp+0x1c>
  1005af:	83 45 fc 01          	addl   $0x1,-0x4(%ebp)
  1005b3:	83 45 f8 01          	addl   $0x1,-0x8(%ebp)
  1005b7:	8b 45 fc             	mov    -0x4(%ebp),%eax
  1005ba:	0f b6 00             	movzbl (%eax),%eax
  1005bd:	84 c0                	test   %al,%al
  1005bf:	74 0a                	je     1005cb <strcmp+0x30>
  1005c1:	8b 45 f8             	mov    -0x8(%ebp),%eax
  1005c4:	0f b6 00             	movzbl (%eax),%eax
  1005c7:	84 c0                	test   %al,%al
  1005c9:	75 e4                	jne    1005af <strcmp+0x14>
  1005cb:	8b 45 fc             	mov    -0x4(%ebp),%eax
  1005ce:	0f b6 00             	movzbl (%eax),%eax
  1005d1:	0f be d0             	movsbl %al,%edx
  1005d4:	8b 45 f8             	mov    -0x8(%ebp),%eax
  1005d7:	0f b6 00             	movzbl (%eax),%eax
  1005da:	0f be c0             	movsbl %al,%eax
  1005dd:	89 d1                	mov    %edx,%ecx
  1005df:	29 c1                	sub    %eax,%ecx
  1005e1:	89 c8                	mov    %ecx,%eax
  1005e3:	89 45 f4             	mov    %eax,-0xc(%ebp)
  1005e6:	8b 45 f4             	mov    -0xc(%ebp),%eax
  1005e9:	c9                   	leave  
  1005ea:	c3                   	ret    

001005eb <strcat>:
  1005eb:	55                   	push   %ebp
  1005ec:	89 e5                	mov    %esp,%ebp
  1005ee:	83 ec 10             	sub    $0x10,%esp
  1005f1:	8b 45 08             	mov    0x8(%ebp),%eax
  1005f4:	89 45 fc             	mov    %eax,-0x4(%ebp)
  1005f7:	8b 45 0c             	mov    0xc(%ebp),%eax
  1005fa:	89 45 f8             	mov    %eax,-0x8(%ebp)
  1005fd:	eb 04                	jmp    100603 <strcat+0x18>
  1005ff:	83 45 fc 01          	addl   $0x1,-0x4(%ebp)
  100603:	8b 45 fc             	mov    -0x4(%ebp),%eax
  100606:	0f b6 00             	movzbl (%eax),%eax
  100609:	84 c0                	test   %al,%al
  10060b:	75 f2                	jne    1005ff <strcat+0x14>
  10060d:	eb 13                	jmp    100622 <strcat+0x37>
  10060f:	8b 45 f8             	mov    -0x8(%ebp),%eax
  100612:	0f b6 10             	movzbl (%eax),%edx
  100615:	8b 45 fc             	mov    -0x4(%ebp),%eax
  100618:	88 10                	mov    %dl,(%eax)
  10061a:	83 45 fc 01          	addl   $0x1,-0x4(%ebp)
  10061e:	83 45 f8 01          	addl   $0x1,-0x8(%ebp)
  100622:	8b 45 f8             	mov    -0x8(%ebp),%eax
  100625:	0f b6 00             	movzbl (%eax),%eax
  100628:	84 c0                	test   %al,%al
  10062a:	75 e3                	jne    10060f <strcat+0x24>
  10062c:	8b 45 fc             	mov    -0x4(%ebp),%eax
  10062f:	c6 00 00             	movb   $0x0,(%eax)
  100632:	8b 45 08             	mov    0x8(%ebp),%eax
  100635:	c9                   	leave  
  100636:	c3                   	ret    

00100637 <strlen>:
  100637:	55                   	push   %ebp
  100638:	89 e5                	mov    %esp,%ebp
  10063a:	83 ec 10             	sub    $0x10,%esp
  10063d:	c7 45 fc 00 00 00 00 	movl   $0x0,-0x4(%ebp)
  100644:	8b 45 08             	mov    0x8(%ebp),%eax
  100647:	89 45 f8             	mov    %eax,-0x8(%ebp)
  10064a:	eb 04                	jmp    100650 <strlen+0x19>
  10064c:	83 45 fc 01          	addl   $0x1,-0x4(%ebp)
  100650:	8b 45 f8             	mov    -0x8(%ebp),%eax
  100653:	0f b6 00             	movzbl (%eax),%eax
  100656:	84 c0                	test   %al,%al
  100658:	0f 95 c0             	setne  %al
  10065b:	83 45 f8 01          	addl   $0x1,-0x8(%ebp)
  10065f:	84 c0                	test   %al,%al
  100661:	75 e9                	jne    10064c <strlen+0x15>
  100663:	8b 45 fc             	mov    -0x4(%ebp),%eax
  100666:	c9                   	leave  
  100667:	c3                   	ret    

00100668 <elf_from_multiboot>:
  100668:	55                   	push   %ebp
  100669:	89 e5                	mov    %esp,%ebp
  10066b:	83 ec 38             	sub    $0x38,%esp
  10066e:	8b 45 0c             	mov    0xc(%ebp),%eax
  100671:	8b 40 24             	mov    0x24(%eax),%eax
  100674:	89 45 f0             	mov    %eax,-0x10(%ebp)
  100677:	8b 45 0c             	mov    0xc(%ebp),%eax
  10067a:	8b 50 28             	mov    0x28(%eax),%edx
  10067d:	89 d0                	mov    %edx,%eax
  10067f:	c1 e0 02             	shl    $0x2,%eax
  100682:	01 d0                	add    %edx,%eax
  100684:	c1 e0 03             	shl    $0x3,%eax
  100687:	03 45 f0             	add    -0x10(%ebp),%eax
  10068a:	8b 40 0c             	mov    0xc(%eax),%eax
  10068d:	89 45 ec             	mov    %eax,-0x14(%ebp)
  100690:	c7 45 f4 00 00 00 00 	movl   $0x0,-0xc(%ebp)
  100697:	e9 a2 00 00 00       	jmp    10073e <elf_from_multiboot+0xd6>
  10069c:	8b 55 f4             	mov    -0xc(%ebp),%edx
  10069f:	89 d0                	mov    %edx,%eax
  1006a1:	c1 e0 02             	shl    $0x2,%eax
  1006a4:	01 d0                	add    %edx,%eax
  1006a6:	c1 e0 03             	shl    $0x3,%eax
  1006a9:	03 45 f0             	add    -0x10(%ebp),%eax
  1006ac:	8b 00                	mov    (%eax),%eax
  1006ae:	03 45 ec             	add    -0x14(%ebp),%eax
  1006b1:	89 45 e8             	mov    %eax,-0x18(%ebp)
  1006b4:	c7 44 24 04 07 20 10 	movl   $0x102007,0x4(%esp)
  1006bb:	00 
  1006bc:	8b 45 e8             	mov    -0x18(%ebp),%eax
  1006bf:	89 04 24             	mov    %eax,(%esp)
  1006c2:	e8 d4 fe ff ff       	call   10059b <strcmp>
  1006c7:	85 c0                	test   %eax,%eax
  1006c9:	75 2c                	jne    1006f7 <elf_from_multiboot+0x8f>
  1006cb:	8b 55 f4             	mov    -0xc(%ebp),%edx
  1006ce:	89 d0                	mov    %edx,%eax
  1006d0:	c1 e0 02             	shl    $0x2,%eax
  1006d3:	01 d0                	add    %edx,%eax
  1006d5:	c1 e0 03             	shl    $0x3,%eax
  1006d8:	03 45 f0             	add    -0x10(%ebp),%eax
  1006db:	8b 40 0c             	mov    0xc(%eax),%eax
  1006de:	89 45 e0             	mov    %eax,-0x20(%ebp)
  1006e1:	8b 55 f4             	mov    -0xc(%ebp),%edx
  1006e4:	89 d0                	mov    %edx,%eax
  1006e6:	c1 e0 02             	shl    $0x2,%eax
  1006e9:	01 d0                	add    %edx,%eax
  1006eb:	c1 e0 03             	shl    $0x3,%eax
  1006ee:	03 45 f0             	add    -0x10(%ebp),%eax
  1006f1:	8b 40 14             	mov    0x14(%eax),%eax
  1006f4:	89 45 e4             	mov    %eax,-0x1c(%ebp)
  1006f7:	c7 44 24 04 0f 20 10 	movl   $0x10200f,0x4(%esp)
  1006fe:	00 
  1006ff:	8b 45 e8             	mov    -0x18(%ebp),%eax
  100702:	89 04 24             	mov    %eax,(%esp)
  100705:	e8 91 fe ff ff       	call   10059b <strcmp>
  10070a:	85 c0                	test   %eax,%eax
  10070c:	75 2c                	jne    10073a <elf_from_multiboot+0xd2>
  10070e:	8b 55 f4             	mov    -0xc(%ebp),%edx
  100711:	89 d0                	mov    %edx,%eax
  100713:	c1 e0 02             	shl    $0x2,%eax
  100716:	01 d0                	add    %edx,%eax
  100718:	c1 e0 03             	shl    $0x3,%eax
  10071b:	03 45 f0             	add    -0x10(%ebp),%eax
  10071e:	8b 40 0c             	mov    0xc(%eax),%eax
  100721:	89 45 d8             	mov    %eax,-0x28(%ebp)
  100724:	8b 55 f4             	mov    -0xc(%ebp),%edx
  100727:	89 d0                	mov    %edx,%eax
  100729:	c1 e0 02             	shl    $0x2,%eax
  10072c:	01 d0                	add    %edx,%eax
  10072e:	c1 e0 03             	shl    $0x3,%eax
  100731:	03 45 f0             	add    -0x10(%ebp),%eax
  100734:	8b 40 14             	mov    0x14(%eax),%eax
  100737:	89 45 dc             	mov    %eax,-0x24(%ebp)
  10073a:	83 45 f4 01          	addl   $0x1,-0xc(%ebp)
  10073e:	8b 55 f4             	mov    -0xc(%ebp),%edx
  100741:	8b 45 0c             	mov    0xc(%ebp),%eax
  100744:	8b 40 1c             	mov    0x1c(%eax),%eax
  100747:	39 c2                	cmp    %eax,%edx
  100749:	0f 82 4d ff ff ff    	jb     10069c <elf_from_multiboot+0x34>
  10074f:	8b 45 08             	mov    0x8(%ebp),%eax
  100752:	8b 55 d8             	mov    -0x28(%ebp),%edx
  100755:	89 10                	mov    %edx,(%eax)
  100757:	8b 55 dc             	mov    -0x24(%ebp),%edx
  10075a:	89 50 04             	mov    %edx,0x4(%eax)
  10075d:	8b 55 e0             	mov    -0x20(%ebp),%edx
  100760:	89 50 08             	mov    %edx,0x8(%eax)
  100763:	8b 55 e4             	mov    -0x1c(%ebp),%edx
  100766:	89 50 0c             	mov    %edx,0xc(%eax)
  100769:	8b 45 08             	mov    0x8(%ebp),%eax
  10076c:	c9                   	leave  
  10076d:	c2 04 00             	ret    $0x4

00100770 <elf_lookup_symbol>:
  100770:	55                   	push   %ebp
  100771:	89 e5                	mov    %esp,%ebp
  100773:	83 ec 10             	sub    $0x10,%esp
  100776:	c7 45 fc 00 00 00 00 	movl   $0x0,-0x4(%ebp)
  10077d:	eb 78                	jmp    1007f7 <elf_lookup_symbol+0x87>
  10077f:	8b 45 0c             	mov    0xc(%ebp),%eax
  100782:	8b 00                	mov    (%eax),%eax
  100784:	8b 55 fc             	mov    -0x4(%ebp),%edx
  100787:	c1 e2 04             	shl    $0x4,%edx
  10078a:	01 d0                	add    %edx,%eax
  10078c:	0f b6 40 0c          	movzbl 0xc(%eax),%eax
  100790:	0f b6 c0             	movzbl %al,%eax
  100793:	83 e0 0f             	and    $0xf,%eax
  100796:	83 f8 02             	cmp    $0x2,%eax
  100799:	75 57                	jne    1007f2 <elf_lookup_symbol+0x82>
  10079b:	8b 45 0c             	mov    0xc(%ebp),%eax
  10079e:	8b 00                	mov    (%eax),%eax
  1007a0:	8b 55 fc             	mov    -0x4(%ebp),%edx
  1007a3:	c1 e2 04             	shl    $0x4,%edx
  1007a6:	01 d0                	add    %edx,%eax
  1007a8:	8b 40 04             	mov    0x4(%eax),%eax
  1007ab:	3b 45 08             	cmp    0x8(%ebp),%eax
  1007ae:	77 43                	ja     1007f3 <elf_lookup_symbol+0x83>
  1007b0:	8b 45 0c             	mov    0xc(%ebp),%eax
  1007b3:	8b 00                	mov    (%eax),%eax
  1007b5:	8b 55 fc             	mov    -0x4(%ebp),%edx
  1007b8:	c1 e2 04             	shl    $0x4,%edx
  1007bb:	01 d0                	add    %edx,%eax
  1007bd:	8b 50 04             	mov    0x4(%eax),%edx
  1007c0:	8b 45 0c             	mov    0xc(%ebp),%eax
  1007c3:	8b 00                	mov    (%eax),%eax
  1007c5:	8b 4d fc             	mov    -0x4(%ebp),%ecx
  1007c8:	c1 e1 04             	shl    $0x4,%ecx
  1007cb:	01 c8                	add    %ecx,%eax
  1007cd:	8b 40 08             	mov    0x8(%eax),%eax
  1007d0:	01 d0                	add    %edx,%eax
  1007d2:	3b 45 08             	cmp    0x8(%ebp),%eax
  1007d5:	76 1c                	jbe    1007f3 <elf_lookup_symbol+0x83>
  1007d7:	8b 45 0c             	mov    0xc(%ebp),%eax
  1007da:	8b 40 08             	mov    0x8(%eax),%eax
  1007dd:	89 c2                	mov    %eax,%edx
  1007df:	8b 45 0c             	mov    0xc(%ebp),%eax
  1007e2:	8b 00                	mov    (%eax),%eax
  1007e4:	8b 4d fc             	mov    -0x4(%ebp),%ecx
  1007e7:	c1 e1 04             	shl    $0x4,%ecx
  1007ea:	01 c8                	add    %ecx,%eax
  1007ec:	8b 00                	mov    (%eax),%eax
  1007ee:	01 d0                	add    %edx,%eax
  1007f0:	eb 1e                	jmp    100810 <elf_lookup_symbol+0xa0>
  1007f2:	90                   	nop
  1007f3:	83 45 fc 01          	addl   $0x1,-0x4(%ebp)
  1007f7:	8b 55 fc             	mov    -0x4(%ebp),%edx
  1007fa:	8b 45 0c             	mov    0xc(%ebp),%eax
  1007fd:	8b 40 04             	mov    0x4(%eax),%eax
  100800:	c1 e8 04             	shr    $0x4,%eax
  100803:	39 c2                	cmp    %eax,%edx
  100805:	0f 82 74 ff ff ff    	jb     10077f <elf_lookup_symbol+0xf>
  10080b:	b8 00 00 00 00       	mov    $0x0,%eax
  100810:	c9                   	leave  
  100811:	c3                   	ret    
	...

00100814 <init_debug>:
  100814:	55                   	push   %ebp
  100815:	89 e5                	mov    %esp,%ebp
  100817:	83 ec 28             	sub    $0x28,%esp
  10081a:	8b 15 00 b0 10 00    	mov    0x10b000,%edx
  100820:	8d 45 e8             	lea    -0x18(%ebp),%eax
  100823:	89 54 24 04          	mov    %edx,0x4(%esp)
  100827:	89 04 24             	mov    %eax,(%esp)
  10082a:	e8 39 fe ff ff       	call   100668 <elf_from_multiboot>
  10082f:	83 ec 04             	sub    $0x4,%esp
  100832:	8b 45 e8             	mov    -0x18(%ebp),%eax
  100835:	a3 08 b0 10 00       	mov    %eax,0x10b008
  10083a:	8b 45 ec             	mov    -0x14(%ebp),%eax
  10083d:	a3 0c b0 10 00       	mov    %eax,0x10b00c
  100842:	8b 45 f0             	mov    -0x10(%ebp),%eax
  100845:	a3 10 b0 10 00       	mov    %eax,0x10b010
  10084a:	8b 45 f4             	mov    -0xc(%ebp),%eax
  10084d:	a3 14 b0 10 00       	mov    %eax,0x10b014
  100852:	c9                   	leave  
  100853:	c3                   	ret    

00100854 <print_cur_status>:
  100854:	55                   	push   %ebp
  100855:	89 e5                	mov    %esp,%ebp
  100857:	83 ec 28             	sub    $0x28,%esp
  10085a:	8c 4d f6             	mov    %cs,-0xa(%ebp)
  10085d:	8c 5d f4             	mov    %ds,-0xc(%ebp)
  100860:	8c 45 f2             	mov    %es,-0xe(%ebp)
  100863:	8c 55 f0             	mov    %ss,-0x10(%ebp)
  100866:	0f b7 45 f6          	movzwl -0xa(%ebp),%eax
  10086a:	0f b7 c0             	movzwl %ax,%eax
  10086d:	89 c2                	mov    %eax,%edx
  10086f:	83 e2 03             	and    $0x3,%edx
  100872:	a1 18 b0 10 00       	mov    0x10b018,%eax
  100877:	89 54 24 08          	mov    %edx,0x8(%esp)
  10087b:	89 44 24 04          	mov    %eax,0x4(%esp)
  10087f:	c7 04 24 17 20 10 00 	movl   $0x102017,(%esp)
  100886:	e8 15 01 00 00       	call   1009a0 <printk>
  10088b:	0f b7 45 f6          	movzwl -0xa(%ebp),%eax
  10088f:	0f b7 d0             	movzwl %ax,%edx
  100892:	a1 18 b0 10 00       	mov    0x10b018,%eax
  100897:	89 54 24 08          	mov    %edx,0x8(%esp)
  10089b:	89 44 24 04          	mov    %eax,0x4(%esp)
  10089f:	c7 04 24 25 20 10 00 	movl   $0x102025,(%esp)
  1008a6:	e8 f5 00 00 00       	call   1009a0 <printk>
  1008ab:	0f b7 45 f4          	movzwl -0xc(%ebp),%eax
  1008af:	0f b7 d0             	movzwl %ax,%edx
  1008b2:	a1 18 b0 10 00       	mov    0x10b018,%eax
  1008b7:	89 54 24 08          	mov    %edx,0x8(%esp)
  1008bb:	89 44 24 04          	mov    %eax,0x4(%esp)
  1008bf:	c7 04 24 33 20 10 00 	movl   $0x102033,(%esp)
  1008c6:	e8 d5 00 00 00       	call   1009a0 <printk>
  1008cb:	0f b7 45 f2          	movzwl -0xe(%ebp),%eax
  1008cf:	0f b7 d0             	movzwl %ax,%edx
  1008d2:	a1 18 b0 10 00       	mov    0x10b018,%eax
  1008d7:	89 54 24 08          	mov    %edx,0x8(%esp)
  1008db:	89 44 24 04          	mov    %eax,0x4(%esp)
  1008df:	c7 04 24 41 20 10 00 	movl   $0x102041,(%esp)
  1008e6:	e8 b5 00 00 00       	call   1009a0 <printk>
  1008eb:	0f b7 45 f0          	movzwl -0x10(%ebp),%eax
  1008ef:	0f b7 d0             	movzwl %ax,%edx
  1008f2:	a1 18 b0 10 00       	mov    0x10b018,%eax
  1008f7:	89 54 24 08          	mov    %edx,0x8(%esp)
  1008fb:	89 44 24 04          	mov    %eax,0x4(%esp)
  1008ff:	c7 04 24 4f 20 10 00 	movl   $0x10204f,(%esp)
  100906:	e8 95 00 00 00       	call   1009a0 <printk>
  10090b:	a1 18 b0 10 00       	mov    0x10b018,%eax
  100910:	83 c0 01             	add    $0x1,%eax
  100913:	a3 18 b0 10 00       	mov    %eax,0x10b018
  100918:	c9                   	leave  
  100919:	c3                   	ret    

0010091a <panic>:
  10091a:	55                   	push   %ebp
  10091b:	89 e5                	mov    %esp,%ebp
  10091d:	83 ec 18             	sub    $0x18,%esp
  100920:	8b 45 08             	mov    0x8(%ebp),%eax
  100923:	89 44 24 04          	mov    %eax,0x4(%esp)
  100927:	c7 04 24 5d 20 10 00 	movl   $0x10205d,(%esp)
  10092e:	e8 6d 00 00 00       	call   1009a0 <printk>
  100933:	e8 0e 00 00 00       	call   100946 <print_stack_trace>
  100938:	c7 04 24 73 20 10 00 	movl   $0x102073,(%esp)
  10093f:	e8 5c 00 00 00       	call   1009a0 <printk>
  100944:	eb fe                	jmp    100944 <panic+0x2a>

00100946 <print_stack_trace>:
  100946:	55                   	push   %ebp
  100947:	89 e5                	mov    %esp,%ebp
  100949:	53                   	push   %ebx
  10094a:	83 ec 24             	sub    $0x24,%esp
  10094d:	89 eb                	mov    %ebp,%ebx
  10094f:	89 5d f4             	mov    %ebx,-0xc(%ebp)
  100952:	eb 3f                	jmp    100993 <print_stack_trace+0x4d>
  100954:	8b 45 f4             	mov    -0xc(%ebp),%eax
  100957:	83 c0 04             	add    $0x4,%eax
  10095a:	89 45 f0             	mov    %eax,-0x10(%ebp)
  10095d:	8b 45 f0             	mov    -0x10(%ebp),%eax
  100960:	8b 00                	mov    (%eax),%eax
  100962:	c7 44 24 04 08 b0 10 	movl   $0x10b008,0x4(%esp)
  100969:	00 
  10096a:	89 04 24             	mov    %eax,(%esp)
  10096d:	e8 fe fd ff ff       	call   100770 <elf_lookup_symbol>
  100972:	8b 55 f0             	mov    -0x10(%ebp),%edx
  100975:	8b 12                	mov    (%edx),%edx
  100977:	89 44 24 08          	mov    %eax,0x8(%esp)
  10097b:	89 54 24 04          	mov    %edx,0x4(%esp)
  10097f:	c7 04 24 78 20 10 00 	movl   $0x102078,(%esp)
  100986:	e8 15 00 00 00       	call   1009a0 <printk>
  10098b:	8b 45 f4             	mov    -0xc(%ebp),%eax
  10098e:	8b 00                	mov    (%eax),%eax
  100990:	89 45 f4             	mov    %eax,-0xc(%ebp)
  100993:	83 7d f4 00          	cmpl   $0x0,-0xc(%ebp)
  100997:	75 bb                	jne    100954 <print_stack_trace+0xe>
  100999:	83 c4 24             	add    $0x24,%esp
  10099c:	5b                   	pop    %ebx
  10099d:	5d                   	pop    %ebp
  10099e:	c3                   	ret    
	...

001009a0 <printk>:
  1009a0:	55                   	push   %ebp
  1009a1:	89 e5                	mov    %esp,%ebp
  1009a3:	83 ec 28             	sub    $0x28,%esp
  1009a6:	8d 55 0c             	lea    0xc(%ebp),%edx
  1009a9:	8d 45 f0             	lea    -0x10(%ebp),%eax
  1009ac:	89 10                	mov    %edx,(%eax)
  1009ae:	8b 45 f0             	mov    -0x10(%ebp),%eax
  1009b1:	89 44 24 08          	mov    %eax,0x8(%esp)
  1009b5:	8b 45 08             	mov    0x8(%ebp),%eax
  1009b8:	89 44 24 04          	mov    %eax,0x4(%esp)
  1009bc:	c7 04 24 20 b4 10 00 	movl   $0x10b420,(%esp)
  1009c3:	e8 f3 02 00 00       	call   100cbb <vsprintf>
  1009c8:	89 45 f4             	mov    %eax,-0xc(%ebp)
  1009cb:	8b 45 f4             	mov    -0xc(%ebp),%eax
  1009ce:	05 20 b4 10 00       	add    $0x10b420,%eax
  1009d3:	c6 00 00             	movb   $0x0,(%eax)
  1009d6:	c7 04 24 20 b4 10 00 	movl   $0x10b420,(%esp)
  1009dd:	e8 cf f8 ff ff       	call   1002b1 <console_write>
  1009e2:	c9                   	leave  
  1009e3:	c3                   	ret    

001009e4 <printk_color>:
  1009e4:	55                   	push   %ebp
  1009e5:	89 e5                	mov    %esp,%ebp
  1009e7:	83 ec 28             	sub    $0x28,%esp
  1009ea:	8d 55 14             	lea    0x14(%ebp),%edx
  1009ed:	8d 45 f0             	lea    -0x10(%ebp),%eax
  1009f0:	89 10                	mov    %edx,(%eax)
  1009f2:	8b 45 f0             	mov    -0x10(%ebp),%eax
  1009f5:	89 44 24 08          	mov    %eax,0x8(%esp)
  1009f9:	8b 45 10             	mov    0x10(%ebp),%eax
  1009fc:	89 44 24 04          	mov    %eax,0x4(%esp)
  100a00:	c7 04 24 20 b0 10 00 	movl   $0x10b020,(%esp)
  100a07:	e8 af 02 00 00       	call   100cbb <vsprintf>
  100a0c:	89 45 f4             	mov    %eax,-0xc(%ebp)
  100a0f:	8b 45 f4             	mov    -0xc(%ebp),%eax
  100a12:	05 20 b0 10 00       	add    $0x10b020,%eax
  100a17:	c6 00 00             	movb   $0x0,(%eax)
  100a1a:	8b 45 0c             	mov    0xc(%ebp),%eax
  100a1d:	89 44 24 08          	mov    %eax,0x8(%esp)
  100a21:	8b 45 08             	mov    0x8(%ebp),%eax
  100a24:	89 44 24 04          	mov    %eax,0x4(%esp)
  100a28:	c7 04 24 20 b0 10 00 	movl   $0x10b020,(%esp)
  100a2f:	e8 b6 f8 ff ff       	call   1002ea <console_write_color>
  100a34:	c9                   	leave  
  100a35:	c3                   	ret    

00100a36 <skip_atoi>:
  100a36:	55                   	push   %ebp
  100a37:	89 e5                	mov    %esp,%ebp
  100a39:	83 ec 10             	sub    $0x10,%esp
  100a3c:	c7 45 fc 00 00 00 00 	movl   $0x0,-0x4(%ebp)
  100a43:	eb 29                	jmp    100a6e <skip_atoi+0x38>
  100a45:	8b 55 fc             	mov    -0x4(%ebp),%edx
  100a48:	89 d0                	mov    %edx,%eax
  100a4a:	c1 e0 02             	shl    $0x2,%eax
  100a4d:	01 d0                	add    %edx,%eax
  100a4f:	01 c0                	add    %eax,%eax
  100a51:	89 c1                	mov    %eax,%ecx
  100a53:	8b 45 08             	mov    0x8(%ebp),%eax
  100a56:	8b 00                	mov    (%eax),%eax
  100a58:	0f b6 10             	movzbl (%eax),%edx
  100a5b:	0f be d2             	movsbl %dl,%edx
  100a5e:	01 ca                	add    %ecx,%edx
  100a60:	83 ea 30             	sub    $0x30,%edx
  100a63:	89 55 fc             	mov    %edx,-0x4(%ebp)
  100a66:	8d 50 01             	lea    0x1(%eax),%edx
  100a69:	8b 45 08             	mov    0x8(%ebp),%eax
  100a6c:	89 10                	mov    %edx,(%eax)
  100a6e:	8b 45 08             	mov    0x8(%ebp),%eax
  100a71:	8b 00                	mov    (%eax),%eax
  100a73:	0f b6 00             	movzbl (%eax),%eax
  100a76:	3c 2f                	cmp    $0x2f,%al
  100a78:	7e 0c                	jle    100a86 <skip_atoi+0x50>
  100a7a:	8b 45 08             	mov    0x8(%ebp),%eax
  100a7d:	8b 00                	mov    (%eax),%eax
  100a7f:	0f b6 00             	movzbl (%eax),%eax
  100a82:	3c 39                	cmp    $0x39,%al
  100a84:	7e bf                	jle    100a45 <skip_atoi+0xf>
  100a86:	8b 45 fc             	mov    -0x4(%ebp),%eax
  100a89:	c9                   	leave  
  100a8a:	c3                   	ret    

00100a8b <number>:
  100a8b:	55                   	push   %ebp
  100a8c:	89 e5                	mov    %esp,%ebp
  100a8e:	53                   	push   %ebx
  100a8f:	83 ec 40             	sub    $0x40,%esp
  100a92:	c7 45 f4 88 20 10 00 	movl   $0x102088,-0xc(%ebp)
  100a99:	8b 45 1c             	mov    0x1c(%ebp),%eax
  100a9c:	83 e0 40             	and    $0x40,%eax
  100a9f:	85 c0                	test   %eax,%eax
  100aa1:	74 07                	je     100aaa <number+0x1f>
  100aa3:	c7 45 f4 b0 20 10 00 	movl   $0x1020b0,-0xc(%ebp)
  100aaa:	8b 45 1c             	mov    0x1c(%ebp),%eax
  100aad:	83 e0 10             	and    $0x10,%eax
  100ab0:	85 c0                	test   %eax,%eax
  100ab2:	74 04                	je     100ab8 <number+0x2d>
  100ab4:	83 65 1c fe          	andl   $0xfffffffe,0x1c(%ebp)
  100ab8:	83 7d 10 01          	cmpl   $0x1,0x10(%ebp)
  100abc:	7e 06                	jle    100ac4 <number+0x39>
  100abe:	83 7d 10 24          	cmpl   $0x24,0x10(%ebp)
  100ac2:	7e 0a                	jle    100ace <number+0x43>
  100ac4:	b8 00 00 00 00       	mov    $0x0,%eax
  100ac9:	e9 e7 01 00 00       	jmp    100cb5 <number+0x22a>
  100ace:	8b 45 1c             	mov    0x1c(%ebp),%eax
  100ad1:	83 e0 01             	and    $0x1,%eax
  100ad4:	84 c0                	test   %al,%al
  100ad6:	74 07                	je     100adf <number+0x54>
  100ad8:	b8 30 00 00 00       	mov    $0x30,%eax
  100add:	eb 05                	jmp    100ae4 <number+0x59>
  100adf:	b8 20 00 00 00       	mov    $0x20,%eax
  100ae4:	88 45 ef             	mov    %al,-0x11(%ebp)
  100ae7:	8b 45 1c             	mov    0x1c(%ebp),%eax
  100aea:	83 e0 02             	and    $0x2,%eax
  100aed:	85 c0                	test   %eax,%eax
  100aef:	74 0f                	je     100b00 <number+0x75>
  100af1:	83 7d 0c 00          	cmpl   $0x0,0xc(%ebp)
  100af5:	79 09                	jns    100b00 <number+0x75>
  100af7:	c6 45 fb 2d          	movb   $0x2d,-0x5(%ebp)
  100afb:	f7 5d 0c             	negl   0xc(%ebp)
  100afe:	eb 2a                	jmp    100b2a <number+0x9f>
  100b00:	8b 45 1c             	mov    0x1c(%ebp),%eax
  100b03:	83 e0 04             	and    $0x4,%eax
  100b06:	85 c0                	test   %eax,%eax
  100b08:	75 18                	jne    100b22 <number+0x97>
  100b0a:	8b 45 1c             	mov    0x1c(%ebp),%eax
  100b0d:	83 e0 08             	and    $0x8,%eax
  100b10:	85 c0                	test   %eax,%eax
  100b12:	74 07                	je     100b1b <number+0x90>
  100b14:	b8 20 00 00 00       	mov    $0x20,%eax
  100b19:	eb 05                	jmp    100b20 <number+0x95>
  100b1b:	b8 00 00 00 00       	mov    $0x0,%eax
  100b20:	eb 05                	jmp    100b27 <number+0x9c>
  100b22:	b8 2b 00 00 00       	mov    $0x2b,%eax
  100b27:	88 45 fb             	mov    %al,-0x5(%ebp)
  100b2a:	80 7d fb 00          	cmpb   $0x0,-0x5(%ebp)
  100b2e:	74 04                	je     100b34 <number+0xa9>
  100b30:	83 6d 14 01          	subl   $0x1,0x14(%ebp)
  100b34:	8b 45 1c             	mov    0x1c(%ebp),%eax
  100b37:	83 e0 20             	and    $0x20,%eax
  100b3a:	85 c0                	test   %eax,%eax
  100b3c:	74 16                	je     100b54 <number+0xc9>
  100b3e:	83 7d 10 10          	cmpl   $0x10,0x10(%ebp)
  100b42:	75 06                	jne    100b4a <number+0xbf>
  100b44:	83 6d 14 02          	subl   $0x2,0x14(%ebp)
  100b48:	eb 0a                	jmp    100b54 <number+0xc9>
  100b4a:	83 7d 10 08          	cmpl   $0x8,0x10(%ebp)
  100b4e:	75 04                	jne    100b54 <number+0xc9>
  100b50:	83 6d 14 01          	subl   $0x1,0x14(%ebp)
  100b54:	c7 45 f0 00 00 00 00 	movl   $0x0,-0x10(%ebp)
  100b5b:	83 7d 0c 00          	cmpl   $0x0,0xc(%ebp)
  100b5f:	75 3d                	jne    100b9e <number+0x113>
  100b61:	8d 45 c4             	lea    -0x3c(%ebp),%eax
  100b64:	03 45 f0             	add    -0x10(%ebp),%eax
  100b67:	c6 00 30             	movb   $0x30,(%eax)
  100b6a:	83 45 f0 01          	addl   $0x1,-0x10(%ebp)
  100b6e:	eb 34                	jmp    100ba4 <number+0x119>
  100b70:	8b 45 0c             	mov    0xc(%ebp),%eax
  100b73:	ba 00 00 00 00       	mov    $0x0,%edx
  100b78:	8b 4d 10             	mov    0x10(%ebp),%ecx
  100b7b:	89 d3                	mov    %edx,%ebx
  100b7d:	89 da                	mov    %ebx,%edx
  100b7f:	f7 f1                	div    %ecx
  100b81:	89 d3                	mov    %edx,%ebx
  100b83:	89 45 0c             	mov    %eax,0xc(%ebp)
  100b86:	89 5d e8             	mov    %ebx,-0x18(%ebp)
  100b89:	8b 45 e8             	mov    -0x18(%ebp),%eax
  100b8c:	03 45 f4             	add    -0xc(%ebp),%eax
  100b8f:	0f b6 10             	movzbl (%eax),%edx
  100b92:	8d 45 c4             	lea    -0x3c(%ebp),%eax
  100b95:	03 45 f0             	add    -0x10(%ebp),%eax
  100b98:	88 10                	mov    %dl,(%eax)
  100b9a:	83 45 f0 01          	addl   $0x1,-0x10(%ebp)
  100b9e:	83 7d 0c 00          	cmpl   $0x0,0xc(%ebp)
  100ba2:	75 cc                	jne    100b70 <number+0xe5>
  100ba4:	8b 45 f0             	mov    -0x10(%ebp),%eax
  100ba7:	3b 45 18             	cmp    0x18(%ebp),%eax
  100baa:	7e 06                	jle    100bb2 <number+0x127>
  100bac:	8b 45 f0             	mov    -0x10(%ebp),%eax
  100baf:	89 45 18             	mov    %eax,0x18(%ebp)
  100bb2:	8b 45 18             	mov    0x18(%ebp),%eax
  100bb5:	29 45 14             	sub    %eax,0x14(%ebp)
  100bb8:	8b 45 1c             	mov    0x1c(%ebp),%eax
  100bbb:	83 e0 11             	and    $0x11,%eax
  100bbe:	85 c0                	test   %eax,%eax
  100bc0:	75 1b                	jne    100bdd <number+0x152>
  100bc2:	eb 0a                	jmp    100bce <number+0x143>
  100bc4:	8b 45 08             	mov    0x8(%ebp),%eax
  100bc7:	c6 00 20             	movb   $0x20,(%eax)
  100bca:	83 45 08 01          	addl   $0x1,0x8(%ebp)
  100bce:	83 7d 14 00          	cmpl   $0x0,0x14(%ebp)
  100bd2:	0f 9f c0             	setg   %al
  100bd5:	83 6d 14 01          	subl   $0x1,0x14(%ebp)
  100bd9:	84 c0                	test   %al,%al
  100bdb:	75 e7                	jne    100bc4 <number+0x139>
  100bdd:	80 7d fb 00          	cmpb   $0x0,-0x5(%ebp)
  100be1:	74 0d                	je     100bf0 <number+0x165>
  100be3:	8b 45 08             	mov    0x8(%ebp),%eax
  100be6:	0f b6 55 fb          	movzbl -0x5(%ebp),%edx
  100bea:	88 10                	mov    %dl,(%eax)
  100bec:	83 45 08 01          	addl   $0x1,0x8(%ebp)
  100bf0:	8b 45 1c             	mov    0x1c(%ebp),%eax
  100bf3:	83 e0 20             	and    $0x20,%eax
  100bf6:	85 c0                	test   %eax,%eax
  100bf8:	74 32                	je     100c2c <number+0x1a1>
  100bfa:	83 7d 10 08          	cmpl   $0x8,0x10(%ebp)
  100bfe:	75 0c                	jne    100c0c <number+0x181>
  100c00:	8b 45 08             	mov    0x8(%ebp),%eax
  100c03:	c6 00 30             	movb   $0x30,(%eax)
  100c06:	83 45 08 01          	addl   $0x1,0x8(%ebp)
  100c0a:	eb 20                	jmp    100c2c <number+0x1a1>
  100c0c:	83 7d 10 10          	cmpl   $0x10,0x10(%ebp)
  100c10:	75 1a                	jne    100c2c <number+0x1a1>
  100c12:	8b 45 08             	mov    0x8(%ebp),%eax
  100c15:	c6 00 30             	movb   $0x30,(%eax)
  100c18:	83 45 08 01          	addl   $0x1,0x8(%ebp)
  100c1c:	8b 45 f4             	mov    -0xc(%ebp),%eax
  100c1f:	0f b6 50 21          	movzbl 0x21(%eax),%edx
  100c23:	8b 45 08             	mov    0x8(%ebp),%eax
  100c26:	88 10                	mov    %dl,(%eax)
  100c28:	83 45 08 01          	addl   $0x1,0x8(%ebp)
  100c2c:	8b 45 1c             	mov    0x1c(%ebp),%eax
  100c2f:	83 e0 10             	and    $0x10,%eax
  100c32:	85 c0                	test   %eax,%eax
  100c34:	75 2c                	jne    100c62 <number+0x1d7>
  100c36:	eb 0d                	jmp    100c45 <number+0x1ba>
  100c38:	8b 45 08             	mov    0x8(%ebp),%eax
  100c3b:	0f b6 55 ef          	movzbl -0x11(%ebp),%edx
  100c3f:	88 10                	mov    %dl,(%eax)
  100c41:	83 45 08 01          	addl   $0x1,0x8(%ebp)
  100c45:	83 7d 14 00          	cmpl   $0x0,0x14(%ebp)
  100c49:	0f 9f c0             	setg   %al
  100c4c:	83 6d 14 01          	subl   $0x1,0x14(%ebp)
  100c50:	84 c0                	test   %al,%al
  100c52:	75 e4                	jne    100c38 <number+0x1ad>
  100c54:	eb 0c                	jmp    100c62 <number+0x1d7>
  100c56:	8b 45 08             	mov    0x8(%ebp),%eax
  100c59:	c6 00 30             	movb   $0x30,(%eax)
  100c5c:	83 45 08 01          	addl   $0x1,0x8(%ebp)
  100c60:	eb 01                	jmp    100c63 <number+0x1d8>
  100c62:	90                   	nop
  100c63:	8b 45 18             	mov    0x18(%ebp),%eax
  100c66:	3b 45 f0             	cmp    -0x10(%ebp),%eax
  100c69:	0f 9f c0             	setg   %al
  100c6c:	83 6d 18 01          	subl   $0x1,0x18(%ebp)
  100c70:	84 c0                	test   %al,%al
  100c72:	75 e2                	jne    100c56 <number+0x1cb>
  100c74:	eb 12                	jmp    100c88 <number+0x1fd>
  100c76:	8d 45 c4             	lea    -0x3c(%ebp),%eax
  100c79:	03 45 f0             	add    -0x10(%ebp),%eax
  100c7c:	0f b6 10             	movzbl (%eax),%edx
  100c7f:	8b 45 08             	mov    0x8(%ebp),%eax
  100c82:	88 10                	mov    %dl,(%eax)
  100c84:	83 45 08 01          	addl   $0x1,0x8(%ebp)
  100c88:	83 7d f0 00          	cmpl   $0x0,-0x10(%ebp)
  100c8c:	0f 9f c0             	setg   %al
  100c8f:	83 6d f0 01          	subl   $0x1,-0x10(%ebp)
  100c93:	84 c0                	test   %al,%al
  100c95:	75 df                	jne    100c76 <number+0x1eb>
  100c97:	eb 0a                	jmp    100ca3 <number+0x218>
  100c99:	8b 45 08             	mov    0x8(%ebp),%eax
  100c9c:	c6 00 20             	movb   $0x20,(%eax)
  100c9f:	83 45 08 01          	addl   $0x1,0x8(%ebp)
  100ca3:	83 7d 14 00          	cmpl   $0x0,0x14(%ebp)
  100ca7:	0f 9f c0             	setg   %al
  100caa:	83 6d 14 01          	subl   $0x1,0x14(%ebp)
  100cae:	84 c0                	test   %al,%al
  100cb0:	75 e7                	jne    100c99 <number+0x20e>
  100cb2:	8b 45 08             	mov    0x8(%ebp),%eax
  100cb5:	83 c4 40             	add    $0x40,%esp
  100cb8:	5b                   	pop    %ebx
  100cb9:	5d                   	pop    %ebp
  100cba:	c3                   	ret    

00100cbb <vsprintf>:
  100cbb:	55                   	push   %ebp
  100cbc:	89 e5                	mov    %esp,%ebp
  100cbe:	83 ec 48             	sub    $0x48,%esp
  100cc1:	8b 45 08             	mov    0x8(%ebp),%eax
  100cc4:	89 45 ec             	mov    %eax,-0x14(%ebp)
  100cc7:	e9 08 04 00 00       	jmp    1010d4 <vsprintf+0x419>
  100ccc:	8b 45 0c             	mov    0xc(%ebp),%eax
  100ccf:	0f b6 00             	movzbl (%eax),%eax
  100cd2:	3c 25                	cmp    $0x25,%al
  100cd4:	74 14                	je     100cea <vsprintf+0x2f>
  100cd6:	8b 45 0c             	mov    0xc(%ebp),%eax
  100cd9:	0f b6 10             	movzbl (%eax),%edx
  100cdc:	8b 45 ec             	mov    -0x14(%ebp),%eax
  100cdf:	88 10                	mov    %dl,(%eax)
  100ce1:	83 45 ec 01          	addl   $0x1,-0x14(%ebp)
  100ce5:	e9 e1 03 00 00       	jmp    1010cb <vsprintf+0x410>
  100cea:	c7 45 e4 00 00 00 00 	movl   $0x0,-0x1c(%ebp)
  100cf1:	8b 45 0c             	mov    0xc(%ebp),%eax
  100cf4:	83 c0 01             	add    $0x1,%eax
  100cf7:	89 45 0c             	mov    %eax,0xc(%ebp)
  100cfa:	8b 45 0c             	mov    0xc(%ebp),%eax
  100cfd:	0f b6 00             	movzbl (%eax),%eax
  100d00:	0f be c0             	movsbl %al,%eax
  100d03:	83 e8 20             	sub    $0x20,%eax
  100d06:	83 f8 10             	cmp    $0x10,%eax
  100d09:	77 27                	ja     100d32 <vsprintf+0x77>
  100d0b:	8b 04 85 d8 20 10 00 	mov    0x1020d8(,%eax,4),%eax
  100d12:	ff e0                	jmp    *%eax
  100d14:	83 4d e4 10          	orl    $0x10,-0x1c(%ebp)
  100d18:	eb d7                	jmp    100cf1 <vsprintf+0x36>
  100d1a:	83 4d e4 04          	orl    $0x4,-0x1c(%ebp)
  100d1e:	eb d1                	jmp    100cf1 <vsprintf+0x36>
  100d20:	83 4d e4 08          	orl    $0x8,-0x1c(%ebp)
  100d24:	eb cb                	jmp    100cf1 <vsprintf+0x36>
  100d26:	83 4d e4 20          	orl    $0x20,-0x1c(%ebp)
  100d2a:	eb c5                	jmp    100cf1 <vsprintf+0x36>
  100d2c:	83 4d e4 01          	orl    $0x1,-0x1c(%ebp)
  100d30:	eb bf                	jmp    100cf1 <vsprintf+0x36>
  100d32:	c7 45 e0 ff ff ff ff 	movl   $0xffffffff,-0x20(%ebp)
  100d39:	8b 45 0c             	mov    0xc(%ebp),%eax
  100d3c:	0f b6 00             	movzbl (%eax),%eax
  100d3f:	3c 2f                	cmp    $0x2f,%al
  100d41:	7e 1a                	jle    100d5d <vsprintf+0xa2>
  100d43:	8b 45 0c             	mov    0xc(%ebp),%eax
  100d46:	0f b6 00             	movzbl (%eax),%eax
  100d49:	3c 39                	cmp    $0x39,%al
  100d4b:	7f 10                	jg     100d5d <vsprintf+0xa2>
  100d4d:	8d 45 0c             	lea    0xc(%ebp),%eax
  100d50:	89 04 24             	mov    %eax,(%esp)
  100d53:	e8 de fc ff ff       	call   100a36 <skip_atoi>
  100d58:	89 45 e0             	mov    %eax,-0x20(%ebp)
  100d5b:	eb 25                	jmp    100d82 <vsprintf+0xc7>
  100d5d:	8b 45 0c             	mov    0xc(%ebp),%eax
  100d60:	0f b6 00             	movzbl (%eax),%eax
  100d63:	3c 2a                	cmp    $0x2a,%al
  100d65:	75 1b                	jne    100d82 <vsprintf+0xc7>
  100d67:	8b 45 10             	mov    0x10(%ebp),%eax
  100d6a:	8d 50 04             	lea    0x4(%eax),%edx
  100d6d:	89 55 10             	mov    %edx,0x10(%ebp)
  100d70:	8b 00                	mov    (%eax),%eax
  100d72:	89 45 e0             	mov    %eax,-0x20(%ebp)
  100d75:	83 7d e0 00          	cmpl   $0x0,-0x20(%ebp)
  100d79:	79 07                	jns    100d82 <vsprintf+0xc7>
  100d7b:	f7 5d e0             	negl   -0x20(%ebp)
  100d7e:	83 4d e4 10          	orl    $0x10,-0x1c(%ebp)
  100d82:	c7 45 dc ff ff ff ff 	movl   $0xffffffff,-0x24(%ebp)
  100d89:	8b 45 0c             	mov    0xc(%ebp),%eax
  100d8c:	0f b6 00             	movzbl (%eax),%eax
  100d8f:	3c 2e                	cmp    $0x2e,%al
  100d91:	75 52                	jne    100de5 <vsprintf+0x12a>
  100d93:	8b 45 0c             	mov    0xc(%ebp),%eax
  100d96:	83 c0 01             	add    $0x1,%eax
  100d99:	89 45 0c             	mov    %eax,0xc(%ebp)
  100d9c:	8b 45 0c             	mov    0xc(%ebp),%eax
  100d9f:	0f b6 00             	movzbl (%eax),%eax
  100da2:	3c 2f                	cmp    $0x2f,%al
  100da4:	7e 1a                	jle    100dc0 <vsprintf+0x105>
  100da6:	8b 45 0c             	mov    0xc(%ebp),%eax
  100da9:	0f b6 00             	movzbl (%eax),%eax
  100dac:	3c 39                	cmp    $0x39,%al
  100dae:	7f 10                	jg     100dc0 <vsprintf+0x105>
  100db0:	8d 45 0c             	lea    0xc(%ebp),%eax
  100db3:	89 04 24             	mov    %eax,(%esp)
  100db6:	e8 7b fc ff ff       	call   100a36 <skip_atoi>
  100dbb:	89 45 dc             	mov    %eax,-0x24(%ebp)
  100dbe:	eb 18                	jmp    100dd8 <vsprintf+0x11d>
  100dc0:	8b 45 0c             	mov    0xc(%ebp),%eax
  100dc3:	0f b6 00             	movzbl (%eax),%eax
  100dc6:	3c 2a                	cmp    $0x2a,%al
  100dc8:	75 0e                	jne    100dd8 <vsprintf+0x11d>
  100dca:	8b 45 10             	mov    0x10(%ebp),%eax
  100dcd:	8d 50 04             	lea    0x4(%eax),%edx
  100dd0:	89 55 10             	mov    %edx,0x10(%ebp)
  100dd3:	8b 00                	mov    (%eax),%eax
  100dd5:	89 45 dc             	mov    %eax,-0x24(%ebp)
  100dd8:	83 7d dc 00          	cmpl   $0x0,-0x24(%ebp)
  100ddc:	79 07                	jns    100de5 <vsprintf+0x12a>
  100dde:	c7 45 dc 00 00 00 00 	movl   $0x0,-0x24(%ebp)
  100de5:	8b 45 0c             	mov    0xc(%ebp),%eax
  100de8:	0f b6 00             	movzbl (%eax),%eax
  100deb:	3c 68                	cmp    $0x68,%al
  100ded:	74 14                	je     100e03 <vsprintf+0x148>
  100def:	8b 45 0c             	mov    0xc(%ebp),%eax
  100df2:	0f b6 00             	movzbl (%eax),%eax
  100df5:	3c 6c                	cmp    $0x6c,%al
  100df7:	74 0a                	je     100e03 <vsprintf+0x148>
  100df9:	8b 45 0c             	mov    0xc(%ebp),%eax
  100dfc:	0f b6 00             	movzbl (%eax),%eax
  100dff:	3c 4c                	cmp    $0x4c,%al
  100e01:	75 09                	jne    100e0c <vsprintf+0x151>
  100e03:	8b 45 0c             	mov    0xc(%ebp),%eax
  100e06:	83 c0 01             	add    $0x1,%eax
  100e09:	89 45 0c             	mov    %eax,0xc(%ebp)
  100e0c:	8b 45 0c             	mov    0xc(%ebp),%eax
  100e0f:	0f b6 00             	movzbl (%eax),%eax
  100e12:	0f be c0             	movsbl %al,%eax
  100e15:	83 e8 58             	sub    $0x58,%eax
  100e18:	83 f8 20             	cmp    $0x20,%eax
  100e1b:	0f 87 71 02 00 00    	ja     101092 <vsprintf+0x3d7>
  100e21:	8b 04 85 1c 21 10 00 	mov    0x10211c(,%eax,4),%eax
  100e28:	ff e0                	jmp    *%eax
  100e2a:	8b 45 e4             	mov    -0x1c(%ebp),%eax
  100e2d:	83 e0 10             	and    $0x10,%eax
  100e30:	85 c0                	test   %eax,%eax
  100e32:	75 16                	jne    100e4a <vsprintf+0x18f>
  100e34:	eb 0a                	jmp    100e40 <vsprintf+0x185>
  100e36:	8b 45 ec             	mov    -0x14(%ebp),%eax
  100e39:	c6 00 20             	movb   $0x20,(%eax)
  100e3c:	83 45 ec 01          	addl   $0x1,-0x14(%ebp)
  100e40:	83 6d e0 01          	subl   $0x1,-0x20(%ebp)
  100e44:	83 7d e0 00          	cmpl   $0x0,-0x20(%ebp)
  100e48:	7f ec                	jg     100e36 <vsprintf+0x17b>
  100e4a:	8b 45 10             	mov    0x10(%ebp),%eax
  100e4d:	8d 50 04             	lea    0x4(%eax),%edx
  100e50:	89 55 10             	mov    %edx,0x10(%ebp)
  100e53:	8b 00                	mov    (%eax),%eax
  100e55:	89 c2                	mov    %eax,%edx
  100e57:	8b 45 ec             	mov    -0x14(%ebp),%eax
  100e5a:	88 10                	mov    %dl,(%eax)
  100e5c:	83 45 ec 01          	addl   $0x1,-0x14(%ebp)
  100e60:	eb 0a                	jmp    100e6c <vsprintf+0x1b1>
  100e62:	8b 45 ec             	mov    -0x14(%ebp),%eax
  100e65:	c6 00 20             	movb   $0x20,(%eax)
  100e68:	83 45 ec 01          	addl   $0x1,-0x14(%ebp)
  100e6c:	83 6d e0 01          	subl   $0x1,-0x20(%ebp)
  100e70:	83 7d e0 00          	cmpl   $0x0,-0x20(%ebp)
  100e74:	7f ec                	jg     100e62 <vsprintf+0x1a7>
  100e76:	e9 50 02 00 00       	jmp    1010cb <vsprintf+0x410>
  100e7b:	8b 45 10             	mov    0x10(%ebp),%eax
  100e7e:	8d 50 04             	lea    0x4(%eax),%edx
  100e81:	89 55 10             	mov    %edx,0x10(%ebp)
  100e84:	8b 00                	mov    (%eax),%eax
  100e86:	89 45 e8             	mov    %eax,-0x18(%ebp)
  100e89:	8b 45 e8             	mov    -0x18(%ebp),%eax
  100e8c:	89 04 24             	mov    %eax,(%esp)
  100e8f:	e8 a3 f7 ff ff       	call   100637 <strlen>
  100e94:	89 45 f4             	mov    %eax,-0xc(%ebp)
  100e97:	83 7d dc 00          	cmpl   $0x0,-0x24(%ebp)
  100e9b:	79 08                	jns    100ea5 <vsprintf+0x1ea>
  100e9d:	8b 45 f4             	mov    -0xc(%ebp),%eax
  100ea0:	89 45 dc             	mov    %eax,-0x24(%ebp)
  100ea3:	eb 0e                	jmp    100eb3 <vsprintf+0x1f8>
  100ea5:	8b 45 f4             	mov    -0xc(%ebp),%eax
  100ea8:	3b 45 dc             	cmp    -0x24(%ebp),%eax
  100eab:	7e 06                	jle    100eb3 <vsprintf+0x1f8>
  100ead:	8b 45 dc             	mov    -0x24(%ebp),%eax
  100eb0:	89 45 f4             	mov    %eax,-0xc(%ebp)
  100eb3:	8b 45 e4             	mov    -0x1c(%ebp),%eax
  100eb6:	83 e0 10             	and    $0x10,%eax
  100eb9:	85 c0                	test   %eax,%eax
  100ebb:	75 1d                	jne    100eda <vsprintf+0x21f>
  100ebd:	eb 0a                	jmp    100ec9 <vsprintf+0x20e>
  100ebf:	8b 45 ec             	mov    -0x14(%ebp),%eax
  100ec2:	c6 00 20             	movb   $0x20,(%eax)
  100ec5:	83 45 ec 01          	addl   $0x1,-0x14(%ebp)
  100ec9:	8b 45 e0             	mov    -0x20(%ebp),%eax
  100ecc:	3b 45 f4             	cmp    -0xc(%ebp),%eax
  100ecf:	0f 9f c0             	setg   %al
  100ed2:	83 6d e0 01          	subl   $0x1,-0x20(%ebp)
  100ed6:	84 c0                	test   %al,%al
  100ed8:	75 e5                	jne    100ebf <vsprintf+0x204>
  100eda:	c7 45 f0 00 00 00 00 	movl   $0x0,-0x10(%ebp)
  100ee1:	eb 17                	jmp    100efa <vsprintf+0x23f>
  100ee3:	8b 45 e8             	mov    -0x18(%ebp),%eax
  100ee6:	0f b6 10             	movzbl (%eax),%edx
  100ee9:	8b 45 ec             	mov    -0x14(%ebp),%eax
  100eec:	88 10                	mov    %dl,(%eax)
  100eee:	83 45 ec 01          	addl   $0x1,-0x14(%ebp)
  100ef2:	83 45 e8 01          	addl   $0x1,-0x18(%ebp)
  100ef6:	83 45 f0 01          	addl   $0x1,-0x10(%ebp)
  100efa:	8b 45 f0             	mov    -0x10(%ebp),%eax
  100efd:	3b 45 f4             	cmp    -0xc(%ebp),%eax
  100f00:	7c e1                	jl     100ee3 <vsprintf+0x228>
  100f02:	eb 0a                	jmp    100f0e <vsprintf+0x253>
  100f04:	8b 45 ec             	mov    -0x14(%ebp),%eax
  100f07:	c6 00 20             	movb   $0x20,(%eax)
  100f0a:	83 45 ec 01          	addl   $0x1,-0x14(%ebp)
  100f0e:	8b 45 e0             	mov    -0x20(%ebp),%eax
  100f11:	3b 45 f4             	cmp    -0xc(%ebp),%eax
  100f14:	0f 9f c0             	setg   %al
  100f17:	83 6d e0 01          	subl   $0x1,-0x20(%ebp)
  100f1b:	84 c0                	test   %al,%al
  100f1d:	75 e5                	jne    100f04 <vsprintf+0x249>
  100f1f:	e9 a7 01 00 00       	jmp    1010cb <vsprintf+0x410>
  100f24:	8b 45 10             	mov    0x10(%ebp),%eax
  100f27:	8d 50 04             	lea    0x4(%eax),%edx
  100f2a:	89 55 10             	mov    %edx,0x10(%ebp)
  100f2d:	8b 00                	mov    (%eax),%eax
  100f2f:	8b 55 e4             	mov    -0x1c(%ebp),%edx
  100f32:	89 54 24 14          	mov    %edx,0x14(%esp)
  100f36:	8b 55 dc             	mov    -0x24(%ebp),%edx
  100f39:	89 54 24 10          	mov    %edx,0x10(%esp)
  100f3d:	8b 55 e0             	mov    -0x20(%ebp),%edx
  100f40:	89 54 24 0c          	mov    %edx,0xc(%esp)
  100f44:	c7 44 24 08 08 00 00 	movl   $0x8,0x8(%esp)
  100f4b:	00 
  100f4c:	89 44 24 04          	mov    %eax,0x4(%esp)
  100f50:	8b 45 ec             	mov    -0x14(%ebp),%eax
  100f53:	89 04 24             	mov    %eax,(%esp)
  100f56:	e8 30 fb ff ff       	call   100a8b <number>
  100f5b:	89 45 ec             	mov    %eax,-0x14(%ebp)
  100f5e:	e9 68 01 00 00       	jmp    1010cb <vsprintf+0x410>
  100f63:	83 7d e0 ff          	cmpl   $0xffffffff,-0x20(%ebp)
  100f67:	75 0b                	jne    100f74 <vsprintf+0x2b9>
  100f69:	c7 45 e0 08 00 00 00 	movl   $0x8,-0x20(%ebp)
  100f70:	83 4d e4 01          	orl    $0x1,-0x1c(%ebp)
  100f74:	8b 45 10             	mov    0x10(%ebp),%eax
  100f77:	8d 50 04             	lea    0x4(%eax),%edx
  100f7a:	89 55 10             	mov    %edx,0x10(%ebp)
  100f7d:	8b 00                	mov    (%eax),%eax
  100f7f:	8b 55 e4             	mov    -0x1c(%ebp),%edx
  100f82:	89 54 24 14          	mov    %edx,0x14(%esp)
  100f86:	8b 55 dc             	mov    -0x24(%ebp),%edx
  100f89:	89 54 24 10          	mov    %edx,0x10(%esp)
  100f8d:	8b 55 e0             	mov    -0x20(%ebp),%edx
  100f90:	89 54 24 0c          	mov    %edx,0xc(%esp)
  100f94:	c7 44 24 08 10 00 00 	movl   $0x10,0x8(%esp)
  100f9b:	00 
  100f9c:	89 44 24 04          	mov    %eax,0x4(%esp)
  100fa0:	8b 45 ec             	mov    -0x14(%ebp),%eax
  100fa3:	89 04 24             	mov    %eax,(%esp)
  100fa6:	e8 e0 fa ff ff       	call   100a8b <number>
  100fab:	89 45 ec             	mov    %eax,-0x14(%ebp)
  100fae:	e9 18 01 00 00       	jmp    1010cb <vsprintf+0x410>
  100fb3:	83 4d e4 40          	orl    $0x40,-0x1c(%ebp)
  100fb7:	8b 45 10             	mov    0x10(%ebp),%eax
  100fba:	8d 50 04             	lea    0x4(%eax),%edx
  100fbd:	89 55 10             	mov    %edx,0x10(%ebp)
  100fc0:	8b 00                	mov    (%eax),%eax
  100fc2:	8b 55 e4             	mov    -0x1c(%ebp),%edx
  100fc5:	89 54 24 14          	mov    %edx,0x14(%esp)
  100fc9:	8b 55 dc             	mov    -0x24(%ebp),%edx
  100fcc:	89 54 24 10          	mov    %edx,0x10(%esp)
  100fd0:	8b 55 e0             	mov    -0x20(%ebp),%edx
  100fd3:	89 54 24 0c          	mov    %edx,0xc(%esp)
  100fd7:	c7 44 24 08 10 00 00 	movl   $0x10,0x8(%esp)
  100fde:	00 
  100fdf:	89 44 24 04          	mov    %eax,0x4(%esp)
  100fe3:	8b 45 ec             	mov    -0x14(%ebp),%eax
  100fe6:	89 04 24             	mov    %eax,(%esp)
  100fe9:	e8 9d fa ff ff       	call   100a8b <number>
  100fee:	89 45 ec             	mov    %eax,-0x14(%ebp)
  100ff1:	e9 d5 00 00 00       	jmp    1010cb <vsprintf+0x410>
  100ff6:	83 4d e4 02          	orl    $0x2,-0x1c(%ebp)
  100ffa:	8b 45 10             	mov    0x10(%ebp),%eax
  100ffd:	8d 50 04             	lea    0x4(%eax),%edx
  101000:	89 55 10             	mov    %edx,0x10(%ebp)
  101003:	8b 00                	mov    (%eax),%eax
  101005:	8b 55 e4             	mov    -0x1c(%ebp),%edx
  101008:	89 54 24 14          	mov    %edx,0x14(%esp)
  10100c:	8b 55 dc             	mov    -0x24(%ebp),%edx
  10100f:	89 54 24 10          	mov    %edx,0x10(%esp)
  101013:	8b 55 e0             	mov    -0x20(%ebp),%edx
  101016:	89 54 24 0c          	mov    %edx,0xc(%esp)
  10101a:	c7 44 24 08 0a 00 00 	movl   $0xa,0x8(%esp)
  101021:	00 
  101022:	89 44 24 04          	mov    %eax,0x4(%esp)
  101026:	8b 45 ec             	mov    -0x14(%ebp),%eax
  101029:	89 04 24             	mov    %eax,(%esp)
  10102c:	e8 5a fa ff ff       	call   100a8b <number>
  101031:	89 45 ec             	mov    %eax,-0x14(%ebp)
  101034:	e9 92 00 00 00       	jmp    1010cb <vsprintf+0x410>
  101039:	8b 45 10             	mov    0x10(%ebp),%eax
  10103c:	8d 50 04             	lea    0x4(%eax),%edx
  10103f:	89 55 10             	mov    %edx,0x10(%ebp)
  101042:	8b 00                	mov    (%eax),%eax
  101044:	8b 55 e4             	mov    -0x1c(%ebp),%edx
  101047:	89 54 24 14          	mov    %edx,0x14(%esp)
  10104b:	8b 55 dc             	mov    -0x24(%ebp),%edx
  10104e:	89 54 24 10          	mov    %edx,0x10(%esp)
  101052:	8b 55 e0             	mov    -0x20(%ebp),%edx
  101055:	89 54 24 0c          	mov    %edx,0xc(%esp)
  101059:	c7 44 24 08 02 00 00 	movl   $0x2,0x8(%esp)
  101060:	00 
  101061:	89 44 24 04          	mov    %eax,0x4(%esp)
  101065:	8b 45 ec             	mov    -0x14(%ebp),%eax
  101068:	89 04 24             	mov    %eax,(%esp)
  10106b:	e8 1b fa ff ff       	call   100a8b <number>
  101070:	89 45 ec             	mov    %eax,-0x14(%ebp)
  101073:	eb 56                	jmp    1010cb <vsprintf+0x410>
  101075:	8b 45 10             	mov    0x10(%ebp),%eax
  101078:	8d 50 04             	lea    0x4(%eax),%edx
  10107b:	89 55 10             	mov    %edx,0x10(%ebp)
  10107e:	8b 00                	mov    (%eax),%eax
  101080:	89 45 d8             	mov    %eax,-0x28(%ebp)
  101083:	8b 55 ec             	mov    -0x14(%ebp),%edx
  101086:	8b 45 08             	mov    0x8(%ebp),%eax
  101089:	29 c2                	sub    %eax,%edx
  10108b:	8b 45 d8             	mov    -0x28(%ebp),%eax
  10108e:	89 10                	mov    %edx,(%eax)
  101090:	eb 39                	jmp    1010cb <vsprintf+0x410>
  101092:	8b 45 0c             	mov    0xc(%ebp),%eax
  101095:	0f b6 00             	movzbl (%eax),%eax
  101098:	3c 25                	cmp    $0x25,%al
  10109a:	74 0a                	je     1010a6 <vsprintf+0x3eb>
  10109c:	8b 45 ec             	mov    -0x14(%ebp),%eax
  10109f:	c6 00 25             	movb   $0x25,(%eax)
  1010a2:	83 45 ec 01          	addl   $0x1,-0x14(%ebp)
  1010a6:	8b 45 0c             	mov    0xc(%ebp),%eax
  1010a9:	0f b6 00             	movzbl (%eax),%eax
  1010ac:	84 c0                	test   %al,%al
  1010ae:	74 11                	je     1010c1 <vsprintf+0x406>
  1010b0:	8b 45 0c             	mov    0xc(%ebp),%eax
  1010b3:	0f b6 10             	movzbl (%eax),%edx
  1010b6:	8b 45 ec             	mov    -0x14(%ebp),%eax
  1010b9:	88 10                	mov    %dl,(%eax)
  1010bb:	83 45 ec 01          	addl   $0x1,-0x14(%ebp)
  1010bf:	eb 09                	jmp    1010ca <vsprintf+0x40f>
  1010c1:	8b 45 0c             	mov    0xc(%ebp),%eax
  1010c4:	83 e8 01             	sub    $0x1,%eax
  1010c7:	89 45 0c             	mov    %eax,0xc(%ebp)
  1010ca:	90                   	nop
  1010cb:	8b 45 0c             	mov    0xc(%ebp),%eax
  1010ce:	83 c0 01             	add    $0x1,%eax
  1010d1:	89 45 0c             	mov    %eax,0xc(%ebp)
  1010d4:	8b 45 0c             	mov    0xc(%ebp),%eax
  1010d7:	0f b6 00             	movzbl (%eax),%eax
  1010da:	84 c0                	test   %al,%al
  1010dc:	0f 85 ea fb ff ff    	jne    100ccc <vsprintf+0x11>
  1010e2:	8b 45 ec             	mov    -0x14(%ebp),%eax
  1010e5:	c6 00 00             	movb   $0x0,(%eax)
  1010e8:	8b 55 ec             	mov    -0x14(%ebp),%edx
  1010eb:	8b 45 08             	mov    0x8(%ebp),%eax
  1010ee:	89 d1                	mov    %edx,%ecx
  1010f0:	29 c1                	sub    %eax,%ecx
  1010f2:	89 c8                	mov    %ecx,%eax
  1010f4:	c9                   	leave  
  1010f5:	c3                   	ret    
	...

001010f8 <kern_entry>:
  1010f8:	55                   	push   %ebp
  1010f9:	89 e5                	mov    %esp,%ebp
  1010fb:	83 ec 18             	sub    $0x18,%esp
  1010fe:	e8 11 f7 ff ff       	call   100814 <init_debug>
  101103:	e8 34 f0 ff ff       	call   10013c <console_clear>
  101108:	c7 04 24 a0 21 10 00 	movl   $0x1021a0,(%esp)
  10110f:	e8 8c f8 ff ff       	call   1009a0 <printk>
  101114:	c7 44 24 08 b0 21 10 	movl   $0x1021b0,0x8(%esp)
  10111b:	00 
  10111c:	c7 44 24 04 02 00 00 	movl   $0x2,0x4(%esp)
  101123:	00 
  101124:	c7 04 24 00 00 00 00 	movl   $0x0,(%esp)
  10112b:	e8 b4 f8 ff ff       	call   1009e4 <printk_color>
  101130:	c7 04 24 c3 21 10 00 	movl   $0x1021c3,(%esp)
  101137:	e8 de f7 ff ff       	call   10091a <panic>
  10113c:	b8 00 00 00 00       	mov    $0x0,%eax
  101141:	c9                   	leave  
  101142:	c3                   	ret    
	...
